(dp0
S'bins'
p1
(lp2
(dp3
S'cut'
p4
S'tag_Ele_pt > 30 && abs(tag_sc_eta) < 2.17 && el_q*tag_Ele_q < 0 && el_pt > 10 && abs(el_sc_eta) < 2.5 && el_reliso03 < 0.08 && abs(el_dxy) < 0.01 && abs(el_dz) < 0.04 && el_3charge == 1 && el_passConversionVeto == 1 && el_dxysig < 4 && el_HNMVATight == 1 && el_sc_eta >= -2.500000 && el_sc_eta < -2.000000 && el_pt >= 10.000000 && el_pt < 15.000000 && tag_Ele_trigMVA > 0.92 && sqrt( 2*event_met_pfmet*tag_Ele_pt*(1-cos(event_met_pfphi-tag_Ele_phi))) < 45 '
p5
sS'name'
p6
S'bin00_el_sc_eta_m2p50Tom2p00_el_pt_10p00To15p00'
p7
sS'vars'
p8
(dp9
S'el_sc_eta'
p10
(dp11
S'max'
p12
F-2.0
sS'min'
p13
F-2.5
ssS'el_pt'
p14
(dp15
g12
I15
sg13
I10
sssS'title'
p16
S'; -2.500 < el_sc_eta < -2.000; 10.000 < el_pt < 15.000'
p17
sa(dp18
g4
S'tag_Ele_pt > 30 && abs(tag_sc_eta) < 2.17 && el_q*tag_Ele_q < 0 && el_pt > 10 && abs(el_sc_eta) < 2.5 && el_reliso03 < 0.08 && abs(el_dxy) < 0.01 && abs(el_dz) < 0.04 && el_3charge == 1 && el_passConversionVeto == 1 && el_dxysig < 4 && el_HNMVATight == 1 && el_sc_eta >= -2.000000 && el_sc_eta < -1.566000 && el_pt >= 10.000000 && el_pt < 15.000000 && tag_Ele_trigMVA > 0.92 && sqrt( 2*event_met_pfmet*tag_Ele_pt*(1-cos(event_met_pfphi-tag_Ele_phi))) < 45 '
p19
sg6
S'bin01_el_sc_eta_m2p00Tom1p57_el_pt_10p00To15p00'
p20
sg8
(dp21
g10
(dp22
g12
F-1.566
sg13
F-2.0
ssg14
(dp23
g12
I15
sg13
I10
sssg16
S'; -2.000 < el_sc_eta < -1.566; 10.000 < el_pt < 15.000'
p24
sa(dp25
g4
S'tag_Ele_pt > 30 && abs(tag_sc_eta) < 2.17 && el_q*tag_Ele_q < 0 && el_pt > 10 && abs(el_sc_eta) < 2.5 && el_reliso03 < 0.08 && abs(el_dxy) < 0.01 && abs(el_dz) < 0.04 && el_3charge == 1 && el_passConversionVeto == 1 && el_dxysig < 4 && el_HNMVATight == 1 && el_sc_eta >= -1.566000 && el_sc_eta < -1.444200 && el_pt >= 10.000000 && el_pt < 15.000000 && tag_Ele_trigMVA > 0.92 && sqrt( 2*event_met_pfmet*tag_Ele_pt*(1-cos(event_met_pfphi-tag_Ele_phi))) < 45 '
p26
sg6
S'bin02_el_sc_eta_m1p57Tom1p44_el_pt_10p00To15p00'
p27
sg8
(dp28
g10
(dp29
g12
F-1.4442
sg13
F-1.566
ssg14
(dp30
g12
I15
sg13
I10
sssg16
S'; -1.566 < el_sc_eta < -1.444; 10.000 < el_pt < 15.000'
p31
sa(dp32
g4
S'tag_Ele_pt > 30 && abs(tag_sc_eta) < 2.17 && el_q*tag_Ele_q < 0 && el_pt > 10 && abs(el_sc_eta) < 2.5 && el_reliso03 < 0.08 && abs(el_dxy) < 0.01 && abs(el_dz) < 0.04 && el_3charge == 1 && el_passConversionVeto == 1 && el_dxysig < 4 && el_HNMVATight == 1 && el_sc_eta >= -1.444200 && el_sc_eta < -0.800000 && el_pt >= 10.000000 && el_pt < 15.000000 && tag_Ele_trigMVA > 0.92 && sqrt( 2*event_met_pfmet*tag_Ele_pt*(1-cos(event_met_pfphi-tag_Ele_phi))) < 45 '
p33
sg6
S'bin03_el_sc_eta_m1p44Tom0p80_el_pt_10p00To15p00'
p34
sg8
(dp35
g10
(dp36
g12
F-0.8
sg13
F-1.4442
ssg14
(dp37
g12
I15
sg13
I10
sssg16
S'; -1.444 < el_sc_eta < -0.800; 10.000 < el_pt < 15.000'
p38
sa(dp39
g4
S'tag_Ele_pt > 30 && abs(tag_sc_eta) < 2.17 && el_q*tag_Ele_q < 0 && el_pt > 10 && abs(el_sc_eta) < 2.5 && el_reliso03 < 0.08 && abs(el_dxy) < 0.01 && abs(el_dz) < 0.04 && el_3charge == 1 && el_passConversionVeto == 1 && el_dxysig < 4 && el_HNMVATight == 1 && el_sc_eta >= -0.800000 && el_sc_eta < 0.000000 && el_pt >= 10.000000 && el_pt < 15.000000 && tag_Ele_trigMVA > 0.92 && sqrt( 2*event_met_pfmet*tag_Ele_pt*(1-cos(event_met_pfphi-tag_Ele_phi))) < 45 '
p40
sg6
S'bin04_el_sc_eta_m0p80To0p00_el_pt_10p00To15p00'
p41
sg8
(dp42
g10
(dp43
g12
F0.0
sg13
F-0.8
ssg14
(dp44
g12
I15
sg13
I10
sssg16
S'; -0.800 < el_sc_eta < 0.000; 10.000 < el_pt < 15.000'
p45
sa(dp46
g4
S'tag_Ele_pt > 30 && abs(tag_sc_eta) < 2.17 && el_q*tag_Ele_q < 0 && el_pt > 10 && abs(el_sc_eta) < 2.5 && el_reliso03 < 0.08 && abs(el_dxy) < 0.01 && abs(el_dz) < 0.04 && el_3charge == 1 && el_passConversionVeto == 1 && el_dxysig < 4 && el_HNMVATight == 1 && el_sc_eta >= 0.000000 && el_sc_eta < 0.800000 && el_pt >= 10.000000 && el_pt < 15.000000 && tag_Ele_trigMVA > 0.92 && sqrt( 2*event_met_pfmet*tag_Ele_pt*(1-cos(event_met_pfphi-tag_Ele_phi))) < 45 '
p47
sg6
S'bin05_el_sc_eta_0p00To0p80_el_pt_10p00To15p00'
p48
sg8
(dp49
g10
(dp50
g12
F0.8
sg13
F0.0
ssg14
(dp51
g12
I15
sg13
I10
sssg16
S'; 0.000 < el_sc_eta < 0.800; 10.000 < el_pt < 15.000'
p52
sa(dp53
g4
S'tag_Ele_pt > 30 && abs(tag_sc_eta) < 2.17 && el_q*tag_Ele_q < 0 && el_pt > 10 && abs(el_sc_eta) < 2.5 && el_reliso03 < 0.08 && abs(el_dxy) < 0.01 && abs(el_dz) < 0.04 && el_3charge == 1 && el_passConversionVeto == 1 && el_dxysig < 4 && el_HNMVATight == 1 && el_sc_eta >= 0.800000 && el_sc_eta < 1.444200 && el_pt >= 10.000000 && el_pt < 15.000000 && tag_Ele_trigMVA > 0.92 && sqrt( 2*event_met_pfmet*tag_Ele_pt*(1-cos(event_met_pfphi-tag_Ele_phi))) < 45 '
p54
sg6
S'bin06_el_sc_eta_0p80To1p44_el_pt_10p00To15p00'
p55
sg8
(dp56
g10
(dp57
g12
F1.4442
sg13
F0.8
ssg14
(dp58
g12
I15
sg13
I10
sssg16
S'; 0.800 < el_sc_eta < 1.444; 10.000 < el_pt < 15.000'
p59
sa(dp60
g4
S'tag_Ele_pt > 30 && abs(tag_sc_eta) < 2.17 && el_q*tag_Ele_q < 0 && el_pt > 10 && abs(el_sc_eta) < 2.5 && el_reliso03 < 0.08 && abs(el_dxy) < 0.01 && abs(el_dz) < 0.04 && el_3charge == 1 && el_passConversionVeto == 1 && el_dxysig < 4 && el_HNMVATight == 1 && el_sc_eta >= 1.444200 && el_sc_eta < 1.566000 && el_pt >= 10.000000 && el_pt < 15.000000 && tag_Ele_trigMVA > 0.92 && sqrt( 2*event_met_pfmet*tag_Ele_pt*(1-cos(event_met_pfphi-tag_Ele_phi))) < 45 '
p61
sg6
S'bin07_el_sc_eta_1p44To1p57_el_pt_10p00To15p00'
p62
sg8
(dp63
g10
(dp64
g12
F1.566
sg13
F1.4442
ssg14
(dp65
g12
I15
sg13
I10
sssg16
S'; 1.444 < el_sc_eta < 1.566; 10.000 < el_pt < 15.000'
p66
sa(dp67
g4
S'tag_Ele_pt > 30 && abs(tag_sc_eta) < 2.17 && el_q*tag_Ele_q < 0 && el_pt > 10 && abs(el_sc_eta) < 2.5 && el_reliso03 < 0.08 && abs(el_dxy) < 0.01 && abs(el_dz) < 0.04 && el_3charge == 1 && el_passConversionVeto == 1 && el_dxysig < 4 && el_HNMVATight == 1 && el_sc_eta >= 1.566000 && el_sc_eta < 2.000000 && el_pt >= 10.000000 && el_pt < 15.000000 && tag_Ele_trigMVA > 0.92 && sqrt( 2*event_met_pfmet*tag_Ele_pt*(1-cos(event_met_pfphi-tag_Ele_phi))) < 45 '
p68
sg6
S'bin08_el_sc_eta_1p57To2p00_el_pt_10p00To15p00'
p69
sg8
(dp70
g10
(dp71
g12
F2.0
sg13
F1.566
ssg14
(dp72
g12
I15
sg13
I10
sssg16
S'; 1.566 < el_sc_eta < 2.000; 10.000 < el_pt < 15.000'
p73
sa(dp74
g4
S'tag_Ele_pt > 30 && abs(tag_sc_eta) < 2.17 && el_q*tag_Ele_q < 0 && el_pt > 10 && abs(el_sc_eta) < 2.5 && el_reliso03 < 0.08 && abs(el_dxy) < 0.01 && abs(el_dz) < 0.04 && el_3charge == 1 && el_passConversionVeto == 1 && el_dxysig < 4 && el_HNMVATight == 1 && el_sc_eta >= 2.000000 && el_sc_eta < 2.500000 && el_pt >= 10.000000 && el_pt < 15.000000 && tag_Ele_trigMVA > 0.92 && sqrt( 2*event_met_pfmet*tag_Ele_pt*(1-cos(event_met_pfphi-tag_Ele_phi))) < 45 '
p75
sg6
S'bin09_el_sc_eta_2p00To2p50_el_pt_10p00To15p00'
p76
sg8
(dp77
g10
(dp78
g12
F2.5
sg13
F2.0
ssg14
(dp79
g12
I15
sg13
I10
sssg16
S'; 2.000 < el_sc_eta < 2.500; 10.000 < el_pt < 15.000'
p80
sa(dp81
g4
S'tag_Ele_pt > 30 && abs(tag_sc_eta) < 2.17 && el_q*tag_Ele_q < 0 && el_pt > 10 && abs(el_sc_eta) < 2.5 && el_reliso03 < 0.08 && abs(el_dxy) < 0.01 && abs(el_dz) < 0.04 && el_3charge == 1 && el_passConversionVeto == 1 && el_dxysig < 4 && el_HNMVATight == 1 && el_sc_eta >= -2.500000 && el_sc_eta < -2.000000 && el_pt >= 15.000000 && el_pt < 20.000000 && tag_Ele_trigMVA > 0.92 && sqrt( 2*event_met_pfmet*tag_Ele_pt*(1-cos(event_met_pfphi-tag_Ele_phi))) < 45 '
p82
sg6
S'bin10_el_sc_eta_m2p50Tom2p00_el_pt_15p00To20p00'
p83
sg8
(dp84
g10
(dp85
g12
F-2.0
sg13
F-2.5
ssg14
(dp86
g12
I20
sg13
I15
sssg16
S'; -2.500 < el_sc_eta < -2.000; 15.000 < el_pt < 20.000'
p87
sa(dp88
g4
S'tag_Ele_pt > 30 && abs(tag_sc_eta) < 2.17 && el_q*tag_Ele_q < 0 && el_pt > 10 && abs(el_sc_eta) < 2.5 && el_reliso03 < 0.08 && abs(el_dxy) < 0.01 && abs(el_dz) < 0.04 && el_3charge == 1 && el_passConversionVeto == 1 && el_dxysig < 4 && el_HNMVATight == 1 && el_sc_eta >= -2.000000 && el_sc_eta < -1.566000 && el_pt >= 15.000000 && el_pt < 20.000000 && tag_Ele_trigMVA > 0.92 && sqrt( 2*event_met_pfmet*tag_Ele_pt*(1-cos(event_met_pfphi-tag_Ele_phi))) < 45 '
p89
sg6
S'bin11_el_sc_eta_m2p00Tom1p57_el_pt_15p00To20p00'
p90
sg8
(dp91
g10
(dp92
g12
F-1.566
sg13
F-2.0
ssg14
(dp93
g12
I20
sg13
I15
sssg16
S'; -2.000 < el_sc_eta < -1.566; 15.000 < el_pt < 20.000'
p94
sa(dp95
g4
S'tag_Ele_pt > 30 && abs(tag_sc_eta) < 2.17 && el_q*tag_Ele_q < 0 && el_pt > 10 && abs(el_sc_eta) < 2.5 && el_reliso03 < 0.08 && abs(el_dxy) < 0.01 && abs(el_dz) < 0.04 && el_3charge == 1 && el_passConversionVeto == 1 && el_dxysig < 4 && el_HNMVATight == 1 && el_sc_eta >= -1.566000 && el_sc_eta < -1.444200 && el_pt >= 15.000000 && el_pt < 20.000000 && tag_Ele_trigMVA > 0.92 && sqrt( 2*event_met_pfmet*tag_Ele_pt*(1-cos(event_met_pfphi-tag_Ele_phi))) < 45 '
p96
sg6
S'bin12_el_sc_eta_m1p57Tom1p44_el_pt_15p00To20p00'
p97
sg8
(dp98
g10
(dp99
g12
F-1.4442
sg13
F-1.566
ssg14
(dp100
g12
I20
sg13
I15
sssg16
S'; -1.566 < el_sc_eta < -1.444; 15.000 < el_pt < 20.000'
p101
sa(dp102
g4
S'tag_Ele_pt > 30 && abs(tag_sc_eta) < 2.17 && el_q*tag_Ele_q < 0 && el_pt > 10 && abs(el_sc_eta) < 2.5 && el_reliso03 < 0.08 && abs(el_dxy) < 0.01 && abs(el_dz) < 0.04 && el_3charge == 1 && el_passConversionVeto == 1 && el_dxysig < 4 && el_HNMVATight == 1 && el_sc_eta >= -1.444200 && el_sc_eta < -0.800000 && el_pt >= 15.000000 && el_pt < 20.000000 && tag_Ele_trigMVA > 0.92 && sqrt( 2*event_met_pfmet*tag_Ele_pt*(1-cos(event_met_pfphi-tag_Ele_phi))) < 45 '
p103
sg6
S'bin13_el_sc_eta_m1p44Tom0p80_el_pt_15p00To20p00'
p104
sg8
(dp105
g10
(dp106
g12
F-0.8
sg13
F-1.4442
ssg14
(dp107
g12
I20
sg13
I15
sssg16
S'; -1.444 < el_sc_eta < -0.800; 15.000 < el_pt < 20.000'
p108
sa(dp109
g4
S'tag_Ele_pt > 30 && abs(tag_sc_eta) < 2.17 && el_q*tag_Ele_q < 0 && el_pt > 10 && abs(el_sc_eta) < 2.5 && el_reliso03 < 0.08 && abs(el_dxy) < 0.01 && abs(el_dz) < 0.04 && el_3charge == 1 && el_passConversionVeto == 1 && el_dxysig < 4 && el_HNMVATight == 1 && el_sc_eta >= -0.800000 && el_sc_eta < 0.000000 && el_pt >= 15.000000 && el_pt < 20.000000 && tag_Ele_trigMVA > 0.92 && sqrt( 2*event_met_pfmet*tag_Ele_pt*(1-cos(event_met_pfphi-tag_Ele_phi))) < 45 '
p110
sg6
S'bin14_el_sc_eta_m0p80To0p00_el_pt_15p00To20p00'
p111
sg8
(dp112
g10
(dp113
g12
F0.0
sg13
F-0.8
ssg14
(dp114
g12
I20
sg13
I15
sssg16
S'; -0.800 < el_sc_eta < 0.000; 15.000 < el_pt < 20.000'
p115
sa(dp116
g4
S'tag_Ele_pt > 30 && abs(tag_sc_eta) < 2.17 && el_q*tag_Ele_q < 0 && el_pt > 10 && abs(el_sc_eta) < 2.5 && el_reliso03 < 0.08 && abs(el_dxy) < 0.01 && abs(el_dz) < 0.04 && el_3charge == 1 && el_passConversionVeto == 1 && el_dxysig < 4 && el_HNMVATight == 1 && el_sc_eta >= 0.000000 && el_sc_eta < 0.800000 && el_pt >= 15.000000 && el_pt < 20.000000 && tag_Ele_trigMVA > 0.92 && sqrt( 2*event_met_pfmet*tag_Ele_pt*(1-cos(event_met_pfphi-tag_Ele_phi))) < 45 '
p117
sg6
S'bin15_el_sc_eta_0p00To0p80_el_pt_15p00To20p00'
p118
sg8
(dp119
g10
(dp120
g12
F0.8
sg13
F0.0
ssg14
(dp121
g12
I20
sg13
I15
sssg16
S'; 0.000 < el_sc_eta < 0.800; 15.000 < el_pt < 20.000'
p122
sa(dp123
g4
S'tag_Ele_pt > 30 && abs(tag_sc_eta) < 2.17 && el_q*tag_Ele_q < 0 && el_pt > 10 && abs(el_sc_eta) < 2.5 && el_reliso03 < 0.08 && abs(el_dxy) < 0.01 && abs(el_dz) < 0.04 && el_3charge == 1 && el_passConversionVeto == 1 && el_dxysig < 4 && el_HNMVATight == 1 && el_sc_eta >= 0.800000 && el_sc_eta < 1.444200 && el_pt >= 15.000000 && el_pt < 20.000000 && tag_Ele_trigMVA > 0.92 && sqrt( 2*event_met_pfmet*tag_Ele_pt*(1-cos(event_met_pfphi-tag_Ele_phi))) < 45 '
p124
sg6
S'bin16_el_sc_eta_0p80To1p44_el_pt_15p00To20p00'
p125
sg8
(dp126
g10
(dp127
g12
F1.4442
sg13
F0.8
ssg14
(dp128
g12
I20
sg13
I15
sssg16
S'; 0.800 < el_sc_eta < 1.444; 15.000 < el_pt < 20.000'
p129
sa(dp130
g4
S'tag_Ele_pt > 30 && abs(tag_sc_eta) < 2.17 && el_q*tag_Ele_q < 0 && el_pt > 10 && abs(el_sc_eta) < 2.5 && el_reliso03 < 0.08 && abs(el_dxy) < 0.01 && abs(el_dz) < 0.04 && el_3charge == 1 && el_passConversionVeto == 1 && el_dxysig < 4 && el_HNMVATight == 1 && el_sc_eta >= 1.444200 && el_sc_eta < 1.566000 && el_pt >= 15.000000 && el_pt < 20.000000 && tag_Ele_trigMVA > 0.92 && sqrt( 2*event_met_pfmet*tag_Ele_pt*(1-cos(event_met_pfphi-tag_Ele_phi))) < 45 '
p131
sg6
S'bin17_el_sc_eta_1p44To1p57_el_pt_15p00To20p00'
p132
sg8
(dp133
g10
(dp134
g12
F1.566
sg13
F1.4442
ssg14
(dp135
g12
I20
sg13
I15
sssg16
S'; 1.444 < el_sc_eta < 1.566; 15.000 < el_pt < 20.000'
p136
sa(dp137
g4
S'tag_Ele_pt > 30 && abs(tag_sc_eta) < 2.17 && el_q*tag_Ele_q < 0 && el_pt > 10 && abs(el_sc_eta) < 2.5 && el_reliso03 < 0.08 && abs(el_dxy) < 0.01 && abs(el_dz) < 0.04 && el_3charge == 1 && el_passConversionVeto == 1 && el_dxysig < 4 && el_HNMVATight == 1 && el_sc_eta >= 1.566000 && el_sc_eta < 2.000000 && el_pt >= 15.000000 && el_pt < 20.000000 && tag_Ele_trigMVA > 0.92 && sqrt( 2*event_met_pfmet*tag_Ele_pt*(1-cos(event_met_pfphi-tag_Ele_phi))) < 45 '
p138
sg6
S'bin18_el_sc_eta_1p57To2p00_el_pt_15p00To20p00'
p139
sg8
(dp140
g10
(dp141
g12
F2.0
sg13
F1.566
ssg14
(dp142
g12
I20
sg13
I15
sssg16
S'; 1.566 < el_sc_eta < 2.000; 15.000 < el_pt < 20.000'
p143
sa(dp144
g4
S'tag_Ele_pt > 30 && abs(tag_sc_eta) < 2.17 && el_q*tag_Ele_q < 0 && el_pt > 10 && abs(el_sc_eta) < 2.5 && el_reliso03 < 0.08 && abs(el_dxy) < 0.01 && abs(el_dz) < 0.04 && el_3charge == 1 && el_passConversionVeto == 1 && el_dxysig < 4 && el_HNMVATight == 1 && el_sc_eta >= 2.000000 && el_sc_eta < 2.500000 && el_pt >= 15.000000 && el_pt < 20.000000 && tag_Ele_trigMVA > 0.92 && sqrt( 2*event_met_pfmet*tag_Ele_pt*(1-cos(event_met_pfphi-tag_Ele_phi))) < 45 '
p145
sg6
S'bin19_el_sc_eta_2p00To2p50_el_pt_15p00To20p00'
p146
sg8
(dp147
g10
(dp148
g12
F2.5
sg13
F2.0
ssg14
(dp149
g12
I20
sg13
I15
sssg16
S'; 2.000 < el_sc_eta < 2.500; 15.000 < el_pt < 20.000'
p150
sa(dp151
g4
S'tag_Ele_pt > 30 && abs(tag_sc_eta) < 2.17 && el_q*tag_Ele_q < 0 && el_pt > 10 && abs(el_sc_eta) < 2.5 && el_reliso03 < 0.08 && abs(el_dxy) < 0.01 && abs(el_dz) < 0.04 && el_3charge == 1 && el_passConversionVeto == 1 && el_dxysig < 4 && el_HNMVATight == 1 && el_sc_eta >= -2.500000 && el_sc_eta < -2.000000 && el_pt >= 20.000000 && el_pt < 25.000000'
p152
sg6
S'bin20_el_sc_eta_m2p50Tom2p00_el_pt_20p00To25p00'
p153
sg8
(dp154
g10
(dp155
g12
F-2.0
sg13
F-2.5
ssg14
(dp156
g12
I25
sg13
I20
sssg16
S'; -2.500 < el_sc_eta < -2.000; 20.000 < el_pt < 25.000'
p157
sa(dp158
g4
S'tag_Ele_pt > 30 && abs(tag_sc_eta) < 2.17 && el_q*tag_Ele_q < 0 && el_pt > 10 && abs(el_sc_eta) < 2.5 && el_reliso03 < 0.08 && abs(el_dxy) < 0.01 && abs(el_dz) < 0.04 && el_3charge == 1 && el_passConversionVeto == 1 && el_dxysig < 4 && el_HNMVATight == 1 && el_sc_eta >= -2.000000 && el_sc_eta < -1.566000 && el_pt >= 20.000000 && el_pt < 25.000000'
p159
sg6
S'bin21_el_sc_eta_m2p00Tom1p57_el_pt_20p00To25p00'
p160
sg8
(dp161
g10
(dp162
g12
F-1.566
sg13
F-2.0
ssg14
(dp163
g12
I25
sg13
I20
sssg16
S'; -2.000 < el_sc_eta < -1.566; 20.000 < el_pt < 25.000'
p164
sa(dp165
g4
S'tag_Ele_pt > 30 && abs(tag_sc_eta) < 2.17 && el_q*tag_Ele_q < 0 && el_pt > 10 && abs(el_sc_eta) < 2.5 && el_reliso03 < 0.08 && abs(el_dxy) < 0.01 && abs(el_dz) < 0.04 && el_3charge == 1 && el_passConversionVeto == 1 && el_dxysig < 4 && el_HNMVATight == 1 && el_sc_eta >= -1.566000 && el_sc_eta < -1.444200 && el_pt >= 20.000000 && el_pt < 25.000000'
p166
sg6
S'bin22_el_sc_eta_m1p57Tom1p44_el_pt_20p00To25p00'
p167
sg8
(dp168
g10
(dp169
g12
F-1.4442
sg13
F-1.566
ssg14
(dp170
g12
I25
sg13
I20
sssg16
S'; -1.566 < el_sc_eta < -1.444; 20.000 < el_pt < 25.000'
p171
sa(dp172
g4
S'tag_Ele_pt > 30 && abs(tag_sc_eta) < 2.17 && el_q*tag_Ele_q < 0 && el_pt > 10 && abs(el_sc_eta) < 2.5 && el_reliso03 < 0.08 && abs(el_dxy) < 0.01 && abs(el_dz) < 0.04 && el_3charge == 1 && el_passConversionVeto == 1 && el_dxysig < 4 && el_HNMVATight == 1 && el_sc_eta >= -1.444200 && el_sc_eta < -0.800000 && el_pt >= 20.000000 && el_pt < 25.000000'
p173
sg6
S'bin23_el_sc_eta_m1p44Tom0p80_el_pt_20p00To25p00'
p174
sg8
(dp175
g10
(dp176
g12
F-0.8
sg13
F-1.4442
ssg14
(dp177
g12
I25
sg13
I20
sssg16
S'; -1.444 < el_sc_eta < -0.800; 20.000 < el_pt < 25.000'
p178
sa(dp179
g4
S'tag_Ele_pt > 30 && abs(tag_sc_eta) < 2.17 && el_q*tag_Ele_q < 0 && el_pt > 10 && abs(el_sc_eta) < 2.5 && el_reliso03 < 0.08 && abs(el_dxy) < 0.01 && abs(el_dz) < 0.04 && el_3charge == 1 && el_passConversionVeto == 1 && el_dxysig < 4 && el_HNMVATight == 1 && el_sc_eta >= -0.800000 && el_sc_eta < 0.000000 && el_pt >= 20.000000 && el_pt < 25.000000'
p180
sg6
S'bin24_el_sc_eta_m0p80To0p00_el_pt_20p00To25p00'
p181
sg8
(dp182
g10
(dp183
g12
F0.0
sg13
F-0.8
ssg14
(dp184
g12
I25
sg13
I20
sssg16
S'; -0.800 < el_sc_eta < 0.000; 20.000 < el_pt < 25.000'
p185
sa(dp186
g4
S'tag_Ele_pt > 30 && abs(tag_sc_eta) < 2.17 && el_q*tag_Ele_q < 0 && el_pt > 10 && abs(el_sc_eta) < 2.5 && el_reliso03 < 0.08 && abs(el_dxy) < 0.01 && abs(el_dz) < 0.04 && el_3charge == 1 && el_passConversionVeto == 1 && el_dxysig < 4 && el_HNMVATight == 1 && el_sc_eta >= 0.000000 && el_sc_eta < 0.800000 && el_pt >= 20.000000 && el_pt < 25.000000'
p187
sg6
S'bin25_el_sc_eta_0p00To0p80_el_pt_20p00To25p00'
p188
sg8
(dp189
g10
(dp190
g12
F0.8
sg13
F0.0
ssg14
(dp191
g12
I25
sg13
I20
sssg16
S'; 0.000 < el_sc_eta < 0.800; 20.000 < el_pt < 25.000'
p192
sa(dp193
g4
S'tag_Ele_pt > 30 && abs(tag_sc_eta) < 2.17 && el_q*tag_Ele_q < 0 && el_pt > 10 && abs(el_sc_eta) < 2.5 && el_reliso03 < 0.08 && abs(el_dxy) < 0.01 && abs(el_dz) < 0.04 && el_3charge == 1 && el_passConversionVeto == 1 && el_dxysig < 4 && el_HNMVATight == 1 && el_sc_eta >= 0.800000 && el_sc_eta < 1.444200 && el_pt >= 20.000000 && el_pt < 25.000000'
p194
sg6
S'bin26_el_sc_eta_0p80To1p44_el_pt_20p00To25p00'
p195
sg8
(dp196
g10
(dp197
g12
F1.4442
sg13
F0.8
ssg14
(dp198
g12
I25
sg13
I20
sssg16
S'; 0.800 < el_sc_eta < 1.444; 20.000 < el_pt < 25.000'
p199
sa(dp200
g4
S'tag_Ele_pt > 30 && abs(tag_sc_eta) < 2.17 && el_q*tag_Ele_q < 0 && el_pt > 10 && abs(el_sc_eta) < 2.5 && el_reliso03 < 0.08 && abs(el_dxy) < 0.01 && abs(el_dz) < 0.04 && el_3charge == 1 && el_passConversionVeto == 1 && el_dxysig < 4 && el_HNMVATight == 1 && el_sc_eta >= 1.444200 && el_sc_eta < 1.566000 && el_pt >= 20.000000 && el_pt < 25.000000'
p201
sg6
S'bin27_el_sc_eta_1p44To1p57_el_pt_20p00To25p00'
p202
sg8
(dp203
g10
(dp204
g12
F1.566
sg13
F1.4442
ssg14
(dp205
g12
I25
sg13
I20
sssg16
S'; 1.444 < el_sc_eta < 1.566; 20.000 < el_pt < 25.000'
p206
sa(dp207
g4
S'tag_Ele_pt > 30 && abs(tag_sc_eta) < 2.17 && el_q*tag_Ele_q < 0 && el_pt > 10 && abs(el_sc_eta) < 2.5 && el_reliso03 < 0.08 && abs(el_dxy) < 0.01 && abs(el_dz) < 0.04 && el_3charge == 1 && el_passConversionVeto == 1 && el_dxysig < 4 && el_HNMVATight == 1 && el_sc_eta >= 1.566000 && el_sc_eta < 2.000000 && el_pt >= 20.000000 && el_pt < 25.000000'
p208
sg6
S'bin28_el_sc_eta_1p57To2p00_el_pt_20p00To25p00'
p209
sg8
(dp210
g10
(dp211
g12
F2.0
sg13
F1.566
ssg14
(dp212
g12
I25
sg13
I20
sssg16
S'; 1.566 < el_sc_eta < 2.000; 20.000 < el_pt < 25.000'
p213
sa(dp214
g4
S'tag_Ele_pt > 30 && abs(tag_sc_eta) < 2.17 && el_q*tag_Ele_q < 0 && el_pt > 10 && abs(el_sc_eta) < 2.5 && el_reliso03 < 0.08 && abs(el_dxy) < 0.01 && abs(el_dz) < 0.04 && el_3charge == 1 && el_passConversionVeto == 1 && el_dxysig < 4 && el_HNMVATight == 1 && el_sc_eta >= 2.000000 && el_sc_eta < 2.500000 && el_pt >= 20.000000 && el_pt < 25.000000'
p215
sg6
S'bin29_el_sc_eta_2p00To2p50_el_pt_20p00To25p00'
p216
sg8
(dp217
g10
(dp218
g12
F2.5
sg13
F2.0
ssg14
(dp219
g12
I25
sg13
I20
sssg16
S'; 2.000 < el_sc_eta < 2.500; 20.000 < el_pt < 25.000'
p220
sa(dp221
g4
S'tag_Ele_pt > 30 && abs(tag_sc_eta) < 2.17 && el_q*tag_Ele_q < 0 && el_pt > 10 && abs(el_sc_eta) < 2.5 && el_reliso03 < 0.08 && abs(el_dxy) < 0.01 && abs(el_dz) < 0.04 && el_3charge == 1 && el_passConversionVeto == 1 && el_dxysig < 4 && el_HNMVATight == 1 && el_sc_eta >= -2.500000 && el_sc_eta < -2.000000 && el_pt >= 25.000000 && el_pt < 30.000000'
p222
sg6
S'bin30_el_sc_eta_m2p50Tom2p00_el_pt_25p00To30p00'
p223
sg8
(dp224
g10
(dp225
g12
F-2.0
sg13
F-2.5
ssg14
(dp226
g12
I30
sg13
I25
sssg16
S'; -2.500 < el_sc_eta < -2.000; 25.000 < el_pt < 30.000'
p227
sa(dp228
g4
S'tag_Ele_pt > 30 && abs(tag_sc_eta) < 2.17 && el_q*tag_Ele_q < 0 && el_pt > 10 && abs(el_sc_eta) < 2.5 && el_reliso03 < 0.08 && abs(el_dxy) < 0.01 && abs(el_dz) < 0.04 && el_3charge == 1 && el_passConversionVeto == 1 && el_dxysig < 4 && el_HNMVATight == 1 && el_sc_eta >= -2.000000 && el_sc_eta < -1.566000 && el_pt >= 25.000000 && el_pt < 30.000000'
p229
sg6
S'bin31_el_sc_eta_m2p00Tom1p57_el_pt_25p00To30p00'
p230
sg8
(dp231
g10
(dp232
g12
F-1.566
sg13
F-2.0
ssg14
(dp233
g12
I30
sg13
I25
sssg16
S'; -2.000 < el_sc_eta < -1.566; 25.000 < el_pt < 30.000'
p234
sa(dp235
g4
S'tag_Ele_pt > 30 && abs(tag_sc_eta) < 2.17 && el_q*tag_Ele_q < 0 && el_pt > 10 && abs(el_sc_eta) < 2.5 && el_reliso03 < 0.08 && abs(el_dxy) < 0.01 && abs(el_dz) < 0.04 && el_3charge == 1 && el_passConversionVeto == 1 && el_dxysig < 4 && el_HNMVATight == 1 && el_sc_eta >= -1.566000 && el_sc_eta < -1.444200 && el_pt >= 25.000000 && el_pt < 30.000000'
p236
sg6
S'bin32_el_sc_eta_m1p57Tom1p44_el_pt_25p00To30p00'
p237
sg8
(dp238
g10
(dp239
g12
F-1.4442
sg13
F-1.566
ssg14
(dp240
g12
I30
sg13
I25
sssg16
S'; -1.566 < el_sc_eta < -1.444; 25.000 < el_pt < 30.000'
p241
sa(dp242
g4
S'tag_Ele_pt > 30 && abs(tag_sc_eta) < 2.17 && el_q*tag_Ele_q < 0 && el_pt > 10 && abs(el_sc_eta) < 2.5 && el_reliso03 < 0.08 && abs(el_dxy) < 0.01 && abs(el_dz) < 0.04 && el_3charge == 1 && el_passConversionVeto == 1 && el_dxysig < 4 && el_HNMVATight == 1 && el_sc_eta >= -1.444200 && el_sc_eta < -0.800000 && el_pt >= 25.000000 && el_pt < 30.000000'
p243
sg6
S'bin33_el_sc_eta_m1p44Tom0p80_el_pt_25p00To30p00'
p244
sg8
(dp245
g10
(dp246
g12
F-0.8
sg13
F-1.4442
ssg14
(dp247
g12
I30
sg13
I25
sssg16
S'; -1.444 < el_sc_eta < -0.800; 25.000 < el_pt < 30.000'
p248
sa(dp249
g4
S'tag_Ele_pt > 30 && abs(tag_sc_eta) < 2.17 && el_q*tag_Ele_q < 0 && el_pt > 10 && abs(el_sc_eta) < 2.5 && el_reliso03 < 0.08 && abs(el_dxy) < 0.01 && abs(el_dz) < 0.04 && el_3charge == 1 && el_passConversionVeto == 1 && el_dxysig < 4 && el_HNMVATight == 1 && el_sc_eta >= -0.800000 && el_sc_eta < 0.000000 && el_pt >= 25.000000 && el_pt < 30.000000'
p250
sg6
S'bin34_el_sc_eta_m0p80To0p00_el_pt_25p00To30p00'
p251
sg8
(dp252
g10
(dp253
g12
F0.0
sg13
F-0.8
ssg14
(dp254
g12
I30
sg13
I25
sssg16
S'; -0.800 < el_sc_eta < 0.000; 25.000 < el_pt < 30.000'
p255
sa(dp256
g4
S'tag_Ele_pt > 30 && abs(tag_sc_eta) < 2.17 && el_q*tag_Ele_q < 0 && el_pt > 10 && abs(el_sc_eta) < 2.5 && el_reliso03 < 0.08 && abs(el_dxy) < 0.01 && abs(el_dz) < 0.04 && el_3charge == 1 && el_passConversionVeto == 1 && el_dxysig < 4 && el_HNMVATight == 1 && el_sc_eta >= 0.000000 && el_sc_eta < 0.800000 && el_pt >= 25.000000 && el_pt < 30.000000'
p257
sg6
S'bin35_el_sc_eta_0p00To0p80_el_pt_25p00To30p00'
p258
sg8
(dp259
g10
(dp260
g12
F0.8
sg13
F0.0
ssg14
(dp261
g12
I30
sg13
I25
sssg16
S'; 0.000 < el_sc_eta < 0.800; 25.000 < el_pt < 30.000'
p262
sa(dp263
g4
S'tag_Ele_pt > 30 && abs(tag_sc_eta) < 2.17 && el_q*tag_Ele_q < 0 && el_pt > 10 && abs(el_sc_eta) < 2.5 && el_reliso03 < 0.08 && abs(el_dxy) < 0.01 && abs(el_dz) < 0.04 && el_3charge == 1 && el_passConversionVeto == 1 && el_dxysig < 4 && el_HNMVATight == 1 && el_sc_eta >= 0.800000 && el_sc_eta < 1.444200 && el_pt >= 25.000000 && el_pt < 30.000000'
p264
sg6
S'bin36_el_sc_eta_0p80To1p44_el_pt_25p00To30p00'
p265
sg8
(dp266
g10
(dp267
g12
F1.4442
sg13
F0.8
ssg14
(dp268
g12
I30
sg13
I25
sssg16
S'; 0.800 < el_sc_eta < 1.444; 25.000 < el_pt < 30.000'
p269
sa(dp270
g4
S'tag_Ele_pt > 30 && abs(tag_sc_eta) < 2.17 && el_q*tag_Ele_q < 0 && el_pt > 10 && abs(el_sc_eta) < 2.5 && el_reliso03 < 0.08 && abs(el_dxy) < 0.01 && abs(el_dz) < 0.04 && el_3charge == 1 && el_passConversionVeto == 1 && el_dxysig < 4 && el_HNMVATight == 1 && el_sc_eta >= 1.444200 && el_sc_eta < 1.566000 && el_pt >= 25.000000 && el_pt < 30.000000'
p271
sg6
S'bin37_el_sc_eta_1p44To1p57_el_pt_25p00To30p00'
p272
sg8
(dp273
g10
(dp274
g12
F1.566
sg13
F1.4442
ssg14
(dp275
g12
I30
sg13
I25
sssg16
S'; 1.444 < el_sc_eta < 1.566; 25.000 < el_pt < 30.000'
p276
sa(dp277
g4
S'tag_Ele_pt > 30 && abs(tag_sc_eta) < 2.17 && el_q*tag_Ele_q < 0 && el_pt > 10 && abs(el_sc_eta) < 2.5 && el_reliso03 < 0.08 && abs(el_dxy) < 0.01 && abs(el_dz) < 0.04 && el_3charge == 1 && el_passConversionVeto == 1 && el_dxysig < 4 && el_HNMVATight == 1 && el_sc_eta >= 1.566000 && el_sc_eta < 2.000000 && el_pt >= 25.000000 && el_pt < 30.000000'
p278
sg6
S'bin38_el_sc_eta_1p57To2p00_el_pt_25p00To30p00'
p279
sg8
(dp280
g10
(dp281
g12
F2.0
sg13
F1.566
ssg14
(dp282
g12
I30
sg13
I25
sssg16
S'; 1.566 < el_sc_eta < 2.000; 25.000 < el_pt < 30.000'
p283
sa(dp284
g4
S'tag_Ele_pt > 30 && abs(tag_sc_eta) < 2.17 && el_q*tag_Ele_q < 0 && el_pt > 10 && abs(el_sc_eta) < 2.5 && el_reliso03 < 0.08 && abs(el_dxy) < 0.01 && abs(el_dz) < 0.04 && el_3charge == 1 && el_passConversionVeto == 1 && el_dxysig < 4 && el_HNMVATight == 1 && el_sc_eta >= 2.000000 && el_sc_eta < 2.500000 && el_pt >= 25.000000 && el_pt < 30.000000'
p285
sg6
S'bin39_el_sc_eta_2p00To2p50_el_pt_25p00To30p00'
p286
sg8
(dp287
g10
(dp288
g12
F2.5
sg13
F2.0
ssg14
(dp289
g12
I30
sg13
I25
sssg16
S'; 2.000 < el_sc_eta < 2.500; 25.000 < el_pt < 30.000'
p290
sa(dp291
g4
S'tag_Ele_pt > 30 && abs(tag_sc_eta) < 2.17 && el_q*tag_Ele_q < 0 && el_pt > 10 && abs(el_sc_eta) < 2.5 && el_reliso03 < 0.08 && abs(el_dxy) < 0.01 && abs(el_dz) < 0.04 && el_3charge == 1 && el_passConversionVeto == 1 && el_dxysig < 4 && el_HNMVATight == 1 && el_sc_eta >= -2.500000 && el_sc_eta < -2.000000 && el_pt >= 30.000000 && el_pt < 50.000000'
p292
sg6
S'bin40_el_sc_eta_m2p50Tom2p00_el_pt_30p00To50p00'
p293
sg8
(dp294
g10
(dp295
g12
F-2.0
sg13
F-2.5
ssg14
(dp296
g12
I50
sg13
I30
sssg16
S'; -2.500 < el_sc_eta < -2.000; 30.000 < el_pt < 50.000'
p297
sa(dp298
g4
S'tag_Ele_pt > 30 && abs(tag_sc_eta) < 2.17 && el_q*tag_Ele_q < 0 && el_pt > 10 && abs(el_sc_eta) < 2.5 && el_reliso03 < 0.08 && abs(el_dxy) < 0.01 && abs(el_dz) < 0.04 && el_3charge == 1 && el_passConversionVeto == 1 && el_dxysig < 4 && el_HNMVATight == 1 && el_sc_eta >= -2.000000 && el_sc_eta < -1.566000 && el_pt >= 30.000000 && el_pt < 50.000000'
p299
sg6
S'bin41_el_sc_eta_m2p00Tom1p57_el_pt_30p00To50p00'
p300
sg8
(dp301
g10
(dp302
g12
F-1.566
sg13
F-2.0
ssg14
(dp303
g12
I50
sg13
I30
sssg16
S'; -2.000 < el_sc_eta < -1.566; 30.000 < el_pt < 50.000'
p304
sa(dp305
g4
S'tag_Ele_pt > 30 && abs(tag_sc_eta) < 2.17 && el_q*tag_Ele_q < 0 && el_pt > 10 && abs(el_sc_eta) < 2.5 && el_reliso03 < 0.08 && abs(el_dxy) < 0.01 && abs(el_dz) < 0.04 && el_3charge == 1 && el_passConversionVeto == 1 && el_dxysig < 4 && el_HNMVATight == 1 && el_sc_eta >= -1.566000 && el_sc_eta < -1.444200 && el_pt >= 30.000000 && el_pt < 50.000000'
p306
sg6
S'bin42_el_sc_eta_m1p57Tom1p44_el_pt_30p00To50p00'
p307
sg8
(dp308
g10
(dp309
g12
F-1.4442
sg13
F-1.566
ssg14
(dp310
g12
I50
sg13
I30
sssg16
S'; -1.566 < el_sc_eta < -1.444; 30.000 < el_pt < 50.000'
p311
sa(dp312
g4
S'tag_Ele_pt > 30 && abs(tag_sc_eta) < 2.17 && el_q*tag_Ele_q < 0 && el_pt > 10 && abs(el_sc_eta) < 2.5 && el_reliso03 < 0.08 && abs(el_dxy) < 0.01 && abs(el_dz) < 0.04 && el_3charge == 1 && el_passConversionVeto == 1 && el_dxysig < 4 && el_HNMVATight == 1 && el_sc_eta >= -1.444200 && el_sc_eta < -0.800000 && el_pt >= 30.000000 && el_pt < 50.000000'
p313
sg6
S'bin43_el_sc_eta_m1p44Tom0p80_el_pt_30p00To50p00'
p314
sg8
(dp315
g10
(dp316
g12
F-0.8
sg13
F-1.4442
ssg14
(dp317
g12
I50
sg13
I30
sssg16
S'; -1.444 < el_sc_eta < -0.800; 30.000 < el_pt < 50.000'
p318
sa(dp319
g4
S'tag_Ele_pt > 30 && abs(tag_sc_eta) < 2.17 && el_q*tag_Ele_q < 0 && el_pt > 10 && abs(el_sc_eta) < 2.5 && el_reliso03 < 0.08 && abs(el_dxy) < 0.01 && abs(el_dz) < 0.04 && el_3charge == 1 && el_passConversionVeto == 1 && el_dxysig < 4 && el_HNMVATight == 1 && el_sc_eta >= -0.800000 && el_sc_eta < 0.000000 && el_pt >= 30.000000 && el_pt < 50.000000'
p320
sg6
S'bin44_el_sc_eta_m0p80To0p00_el_pt_30p00To50p00'
p321
sg8
(dp322
g10
(dp323
g12
F0.0
sg13
F-0.8
ssg14
(dp324
g12
I50
sg13
I30
sssg16
S'; -0.800 < el_sc_eta < 0.000; 30.000 < el_pt < 50.000'
p325
sa(dp326
g4
S'tag_Ele_pt > 30 && abs(tag_sc_eta) < 2.17 && el_q*tag_Ele_q < 0 && el_pt > 10 && abs(el_sc_eta) < 2.5 && el_reliso03 < 0.08 && abs(el_dxy) < 0.01 && abs(el_dz) < 0.04 && el_3charge == 1 && el_passConversionVeto == 1 && el_dxysig < 4 && el_HNMVATight == 1 && el_sc_eta >= 0.000000 && el_sc_eta < 0.800000 && el_pt >= 30.000000 && el_pt < 50.000000'
p327
sg6
S'bin45_el_sc_eta_0p00To0p80_el_pt_30p00To50p00'
p328
sg8
(dp329
g10
(dp330
g12
F0.8
sg13
F0.0
ssg14
(dp331
g12
I50
sg13
I30
sssg16
S'; 0.000 < el_sc_eta < 0.800; 30.000 < el_pt < 50.000'
p332
sa(dp333
g4
S'tag_Ele_pt > 30 && abs(tag_sc_eta) < 2.17 && el_q*tag_Ele_q < 0 && el_pt > 10 && abs(el_sc_eta) < 2.5 && el_reliso03 < 0.08 && abs(el_dxy) < 0.01 && abs(el_dz) < 0.04 && el_3charge == 1 && el_passConversionVeto == 1 && el_dxysig < 4 && el_HNMVATight == 1 && el_sc_eta >= 0.800000 && el_sc_eta < 1.444200 && el_pt >= 30.000000 && el_pt < 50.000000'
p334
sg6
S'bin46_el_sc_eta_0p80To1p44_el_pt_30p00To50p00'
p335
sg8
(dp336
g10
(dp337
g12
F1.4442
sg13
F0.8
ssg14
(dp338
g12
I50
sg13
I30
sssg16
S'; 0.800 < el_sc_eta < 1.444; 30.000 < el_pt < 50.000'
p339
sa(dp340
g4
S'tag_Ele_pt > 30 && abs(tag_sc_eta) < 2.17 && el_q*tag_Ele_q < 0 && el_pt > 10 && abs(el_sc_eta) < 2.5 && el_reliso03 < 0.08 && abs(el_dxy) < 0.01 && abs(el_dz) < 0.04 && el_3charge == 1 && el_passConversionVeto == 1 && el_dxysig < 4 && el_HNMVATight == 1 && el_sc_eta >= 1.444200 && el_sc_eta < 1.566000 && el_pt >= 30.000000 && el_pt < 50.000000'
p341
sg6
S'bin47_el_sc_eta_1p44To1p57_el_pt_30p00To50p00'
p342
sg8
(dp343
g10
(dp344
g12
F1.566
sg13
F1.4442
ssg14
(dp345
g12
I50
sg13
I30
sssg16
S'; 1.444 < el_sc_eta < 1.566; 30.000 < el_pt < 50.000'
p346
sa(dp347
g4
S'tag_Ele_pt > 30 && abs(tag_sc_eta) < 2.17 && el_q*tag_Ele_q < 0 && el_pt > 10 && abs(el_sc_eta) < 2.5 && el_reliso03 < 0.08 && abs(el_dxy) < 0.01 && abs(el_dz) < 0.04 && el_3charge == 1 && el_passConversionVeto == 1 && el_dxysig < 4 && el_HNMVATight == 1 && el_sc_eta >= 1.566000 && el_sc_eta < 2.000000 && el_pt >= 30.000000 && el_pt < 50.000000'
p348
sg6
S'bin48_el_sc_eta_1p57To2p00_el_pt_30p00To50p00'
p349
sg8
(dp350
g10
(dp351
g12
F2.0
sg13
F1.566
ssg14
(dp352
g12
I50
sg13
I30
sssg16
S'; 1.566 < el_sc_eta < 2.000; 30.000 < el_pt < 50.000'
p353
sa(dp354
g4
S'tag_Ele_pt > 30 && abs(tag_sc_eta) < 2.17 && el_q*tag_Ele_q < 0 && el_pt > 10 && abs(el_sc_eta) < 2.5 && el_reliso03 < 0.08 && abs(el_dxy) < 0.01 && abs(el_dz) < 0.04 && el_3charge == 1 && el_passConversionVeto == 1 && el_dxysig < 4 && el_HNMVATight == 1 && el_sc_eta >= 2.000000 && el_sc_eta < 2.500000 && el_pt >= 30.000000 && el_pt < 50.000000'
p355
sg6
S'bin49_el_sc_eta_2p00To2p50_el_pt_30p00To50p00'
p356
sg8
(dp357
g10
(dp358
g12
F2.5
sg13
F2.0
ssg14
(dp359
g12
I50
sg13
I30
sssg16
S'; 2.000 < el_sc_eta < 2.500; 30.000 < el_pt < 50.000'
p360
sa(dp361
g4
S'tag_Ele_pt > 30 && abs(tag_sc_eta) < 2.17 && el_q*tag_Ele_q < 0 && el_pt > 10 && abs(el_sc_eta) < 2.5 && el_reliso03 < 0.08 && abs(el_dxy) < 0.01 && abs(el_dz) < 0.04 && el_3charge == 1 && el_passConversionVeto == 1 && el_dxysig < 4 && el_HNMVATight == 1 && el_sc_eta >= -2.500000 && el_sc_eta < -2.000000 && el_pt >= 50.000000 && el_pt < 90.000000'
p362
sg6
S'bin50_el_sc_eta_m2p50Tom2p00_el_pt_50p00To90p00'
p363
sg8
(dp364
g10
(dp365
g12
F-2.0
sg13
F-2.5
ssg14
(dp366
g12
I90
sg13
I50
sssg16
S'; -2.500 < el_sc_eta < -2.000; 50.000 < el_pt < 90.000'
p367
sa(dp368
g4
S'tag_Ele_pt > 30 && abs(tag_sc_eta) < 2.17 && el_q*tag_Ele_q < 0 && el_pt > 10 && abs(el_sc_eta) < 2.5 && el_reliso03 < 0.08 && abs(el_dxy) < 0.01 && abs(el_dz) < 0.04 && el_3charge == 1 && el_passConversionVeto == 1 && el_dxysig < 4 && el_HNMVATight == 1 && el_sc_eta >= -2.000000 && el_sc_eta < -1.566000 && el_pt >= 50.000000 && el_pt < 90.000000'
p369
sg6
S'bin51_el_sc_eta_m2p00Tom1p57_el_pt_50p00To90p00'
p370
sg8
(dp371
g10
(dp372
g12
F-1.566
sg13
F-2.0
ssg14
(dp373
g12
I90
sg13
I50
sssg16
S'; -2.000 < el_sc_eta < -1.566; 50.000 < el_pt < 90.000'
p374
sa(dp375
g4
S'tag_Ele_pt > 30 && abs(tag_sc_eta) < 2.17 && el_q*tag_Ele_q < 0 && el_pt > 10 && abs(el_sc_eta) < 2.5 && el_reliso03 < 0.08 && abs(el_dxy) < 0.01 && abs(el_dz) < 0.04 && el_3charge == 1 && el_passConversionVeto == 1 && el_dxysig < 4 && el_HNMVATight == 1 && el_sc_eta >= -1.566000 && el_sc_eta < -1.444200 && el_pt >= 50.000000 && el_pt < 90.000000'
p376
sg6
S'bin52_el_sc_eta_m1p57Tom1p44_el_pt_50p00To90p00'
p377
sg8
(dp378
g10
(dp379
g12
F-1.4442
sg13
F-1.566
ssg14
(dp380
g12
I90
sg13
I50
sssg16
S'; -1.566 < el_sc_eta < -1.444; 50.000 < el_pt < 90.000'
p381
sa(dp382
g4
S'tag_Ele_pt > 30 && abs(tag_sc_eta) < 2.17 && el_q*tag_Ele_q < 0 && el_pt > 10 && abs(el_sc_eta) < 2.5 && el_reliso03 < 0.08 && abs(el_dxy) < 0.01 && abs(el_dz) < 0.04 && el_3charge == 1 && el_passConversionVeto == 1 && el_dxysig < 4 && el_HNMVATight == 1 && el_sc_eta >= -1.444200 && el_sc_eta < -0.800000 && el_pt >= 50.000000 && el_pt < 90.000000'
p383
sg6
S'bin53_el_sc_eta_m1p44Tom0p80_el_pt_50p00To90p00'
p384
sg8
(dp385
g10
(dp386
g12
F-0.8
sg13
F-1.4442
ssg14
(dp387
g12
I90
sg13
I50
sssg16
S'; -1.444 < el_sc_eta < -0.800; 50.000 < el_pt < 90.000'
p388
sa(dp389
g4
S'tag_Ele_pt > 30 && abs(tag_sc_eta) < 2.17 && el_q*tag_Ele_q < 0 && el_pt > 10 && abs(el_sc_eta) < 2.5 && el_reliso03 < 0.08 && abs(el_dxy) < 0.01 && abs(el_dz) < 0.04 && el_3charge == 1 && el_passConversionVeto == 1 && el_dxysig < 4 && el_HNMVATight == 1 && el_sc_eta >= -0.800000 && el_sc_eta < 0.000000 && el_pt >= 50.000000 && el_pt < 90.000000'
p390
sg6
S'bin54_el_sc_eta_m0p80To0p00_el_pt_50p00To90p00'
p391
sg8
(dp392
g10
(dp393
g12
F0.0
sg13
F-0.8
ssg14
(dp394
g12
I90
sg13
I50
sssg16
S'; -0.800 < el_sc_eta < 0.000; 50.000 < el_pt < 90.000'
p395
sa(dp396
g4
S'tag_Ele_pt > 30 && abs(tag_sc_eta) < 2.17 && el_q*tag_Ele_q < 0 && el_pt > 10 && abs(el_sc_eta) < 2.5 && el_reliso03 < 0.08 && abs(el_dxy) < 0.01 && abs(el_dz) < 0.04 && el_3charge == 1 && el_passConversionVeto == 1 && el_dxysig < 4 && el_HNMVATight == 1 && el_sc_eta >= 0.000000 && el_sc_eta < 0.800000 && el_pt >= 50.000000 && el_pt < 90.000000'
p397
sg6
S'bin55_el_sc_eta_0p00To0p80_el_pt_50p00To90p00'
p398
sg8
(dp399
g10
(dp400
g12
F0.8
sg13
F0.0
ssg14
(dp401
g12
I90
sg13
I50
sssg16
S'; 0.000 < el_sc_eta < 0.800; 50.000 < el_pt < 90.000'
p402
sa(dp403
g4
S'tag_Ele_pt > 30 && abs(tag_sc_eta) < 2.17 && el_q*tag_Ele_q < 0 && el_pt > 10 && abs(el_sc_eta) < 2.5 && el_reliso03 < 0.08 && abs(el_dxy) < 0.01 && abs(el_dz) < 0.04 && el_3charge == 1 && el_passConversionVeto == 1 && el_dxysig < 4 && el_HNMVATight == 1 && el_sc_eta >= 0.800000 && el_sc_eta < 1.444200 && el_pt >= 50.000000 && el_pt < 90.000000'
p404
sg6
S'bin56_el_sc_eta_0p80To1p44_el_pt_50p00To90p00'
p405
sg8
(dp406
g10
(dp407
g12
F1.4442
sg13
F0.8
ssg14
(dp408
g12
I90
sg13
I50
sssg16
S'; 0.800 < el_sc_eta < 1.444; 50.000 < el_pt < 90.000'
p409
sa(dp410
g4
S'tag_Ele_pt > 30 && abs(tag_sc_eta) < 2.17 && el_q*tag_Ele_q < 0 && el_pt > 10 && abs(el_sc_eta) < 2.5 && el_reliso03 < 0.08 && abs(el_dxy) < 0.01 && abs(el_dz) < 0.04 && el_3charge == 1 && el_passConversionVeto == 1 && el_dxysig < 4 && el_HNMVATight == 1 && el_sc_eta >= 1.444200 && el_sc_eta < 1.566000 && el_pt >= 50.000000 && el_pt < 90.000000'
p411
sg6
S'bin57_el_sc_eta_1p44To1p57_el_pt_50p00To90p00'
p412
sg8
(dp413
g10
(dp414
g12
F1.566
sg13
F1.4442
ssg14
(dp415
g12
I90
sg13
I50
sssg16
S'; 1.444 < el_sc_eta < 1.566; 50.000 < el_pt < 90.000'
p416
sa(dp417
g4
S'tag_Ele_pt > 30 && abs(tag_sc_eta) < 2.17 && el_q*tag_Ele_q < 0 && el_pt > 10 && abs(el_sc_eta) < 2.5 && el_reliso03 < 0.08 && abs(el_dxy) < 0.01 && abs(el_dz) < 0.04 && el_3charge == 1 && el_passConversionVeto == 1 && el_dxysig < 4 && el_HNMVATight == 1 && el_sc_eta >= 1.566000 && el_sc_eta < 2.000000 && el_pt >= 50.000000 && el_pt < 90.000000'
p418
sg6
S'bin58_el_sc_eta_1p57To2p00_el_pt_50p00To90p00'
p419
sg8
(dp420
g10
(dp421
g12
F2.0
sg13
F1.566
ssg14
(dp422
g12
I90
sg13
I50
sssg16
S'; 1.566 < el_sc_eta < 2.000; 50.000 < el_pt < 90.000'
p423
sa(dp424
g4
S'tag_Ele_pt > 30 && abs(tag_sc_eta) < 2.17 && el_q*tag_Ele_q < 0 && el_pt > 10 && abs(el_sc_eta) < 2.5 && el_reliso03 < 0.08 && abs(el_dxy) < 0.01 && abs(el_dz) < 0.04 && el_3charge == 1 && el_passConversionVeto == 1 && el_dxysig < 4 && el_HNMVATight == 1 && el_sc_eta >= 2.000000 && el_sc_eta < 2.500000 && el_pt >= 50.000000 && el_pt < 90.000000'
p425
sg6
S'bin59_el_sc_eta_2p00To2p50_el_pt_50p00To90p00'
p426
sg8
(dp427
g10
(dp428
g12
F2.5
sg13
F2.0
ssg14
(dp429
g12
I90
sg13
I50
sssg16
S'; 2.000 < el_sc_eta < 2.500; 50.000 < el_pt < 90.000'
p430
sa(dp431
g4
S'tag_Ele_pt > 30 && abs(tag_sc_eta) < 2.17 && el_q*tag_Ele_q < 0 && el_pt > 10 && abs(el_sc_eta) < 2.5 && el_reliso03 < 0.08 && abs(el_dxy) < 0.01 && abs(el_dz) < 0.04 && el_3charge == 1 && el_passConversionVeto == 1 && el_dxysig < 4 && el_HNMVATight == 1 && el_sc_eta >= -2.500000 && el_sc_eta < -2.000000 && el_pt >= 90.000000 && el_pt < 150.000000'
p432
sg6
S'bin60_el_sc_eta_m2p50Tom2p00_el_pt_90p00To150p00'
p433
sg8
(dp434
g10
(dp435
g12
F-2.0
sg13
F-2.5
ssg14
(dp436
g12
I150
sg13
I90
sssg16
S'; -2.500 < el_sc_eta < -2.000; 90.000 < el_pt < 150.000'
p437
sa(dp438
g4
S'tag_Ele_pt > 30 && abs(tag_sc_eta) < 2.17 && el_q*tag_Ele_q < 0 && el_pt > 10 && abs(el_sc_eta) < 2.5 && el_reliso03 < 0.08 && abs(el_dxy) < 0.01 && abs(el_dz) < 0.04 && el_3charge == 1 && el_passConversionVeto == 1 && el_dxysig < 4 && el_HNMVATight == 1 && el_sc_eta >= -2.000000 && el_sc_eta < -1.566000 && el_pt >= 90.000000 && el_pt < 150.000000'
p439
sg6
S'bin61_el_sc_eta_m2p00Tom1p57_el_pt_90p00To150p00'
p440
sg8
(dp441
g10
(dp442
g12
F-1.566
sg13
F-2.0
ssg14
(dp443
g12
I150
sg13
I90
sssg16
S'; -2.000 < el_sc_eta < -1.566; 90.000 < el_pt < 150.000'
p444
sa(dp445
g4
S'tag_Ele_pt > 30 && abs(tag_sc_eta) < 2.17 && el_q*tag_Ele_q < 0 && el_pt > 10 && abs(el_sc_eta) < 2.5 && el_reliso03 < 0.08 && abs(el_dxy) < 0.01 && abs(el_dz) < 0.04 && el_3charge == 1 && el_passConversionVeto == 1 && el_dxysig < 4 && el_HNMVATight == 1 && el_sc_eta >= -1.566000 && el_sc_eta < -1.444200 && el_pt >= 90.000000 && el_pt < 150.000000'
p446
sg6
S'bin62_el_sc_eta_m1p57Tom1p44_el_pt_90p00To150p00'
p447
sg8
(dp448
g10
(dp449
g12
F-1.4442
sg13
F-1.566
ssg14
(dp450
g12
I150
sg13
I90
sssg16
S'; -1.566 < el_sc_eta < -1.444; 90.000 < el_pt < 150.000'
p451
sa(dp452
g4
S'tag_Ele_pt > 30 && abs(tag_sc_eta) < 2.17 && el_q*tag_Ele_q < 0 && el_pt > 10 && abs(el_sc_eta) < 2.5 && el_reliso03 < 0.08 && abs(el_dxy) < 0.01 && abs(el_dz) < 0.04 && el_3charge == 1 && el_passConversionVeto == 1 && el_dxysig < 4 && el_HNMVATight == 1 && el_sc_eta >= -1.444200 && el_sc_eta < -0.800000 && el_pt >= 90.000000 && el_pt < 150.000000'
p453
sg6
S'bin63_el_sc_eta_m1p44Tom0p80_el_pt_90p00To150p00'
p454
sg8
(dp455
g10
(dp456
g12
F-0.8
sg13
F-1.4442
ssg14
(dp457
g12
I150
sg13
I90
sssg16
S'; -1.444 < el_sc_eta < -0.800; 90.000 < el_pt < 150.000'
p458
sa(dp459
g4
S'tag_Ele_pt > 30 && abs(tag_sc_eta) < 2.17 && el_q*tag_Ele_q < 0 && el_pt > 10 && abs(el_sc_eta) < 2.5 && el_reliso03 < 0.08 && abs(el_dxy) < 0.01 && abs(el_dz) < 0.04 && el_3charge == 1 && el_passConversionVeto == 1 && el_dxysig < 4 && el_HNMVATight == 1 && el_sc_eta >= -0.800000 && el_sc_eta < 0.000000 && el_pt >= 90.000000 && el_pt < 150.000000'
p460
sg6
S'bin64_el_sc_eta_m0p80To0p00_el_pt_90p00To150p00'
p461
sg8
(dp462
g10
(dp463
g12
F0.0
sg13
F-0.8
ssg14
(dp464
g12
I150
sg13
I90
sssg16
S'; -0.800 < el_sc_eta < 0.000; 90.000 < el_pt < 150.000'
p465
sa(dp466
g4
S'tag_Ele_pt > 30 && abs(tag_sc_eta) < 2.17 && el_q*tag_Ele_q < 0 && el_pt > 10 && abs(el_sc_eta) < 2.5 && el_reliso03 < 0.08 && abs(el_dxy) < 0.01 && abs(el_dz) < 0.04 && el_3charge == 1 && el_passConversionVeto == 1 && el_dxysig < 4 && el_HNMVATight == 1 && el_sc_eta >= 0.000000 && el_sc_eta < 0.800000 && el_pt >= 90.000000 && el_pt < 150.000000'
p467
sg6
S'bin65_el_sc_eta_0p00To0p80_el_pt_90p00To150p00'
p468
sg8
(dp469
g10
(dp470
g12
F0.8
sg13
F0.0
ssg14
(dp471
g12
I150
sg13
I90
sssg16
S'; 0.000 < el_sc_eta < 0.800; 90.000 < el_pt < 150.000'
p472
sa(dp473
g4
S'tag_Ele_pt > 30 && abs(tag_sc_eta) < 2.17 && el_q*tag_Ele_q < 0 && el_pt > 10 && abs(el_sc_eta) < 2.5 && el_reliso03 < 0.08 && abs(el_dxy) < 0.01 && abs(el_dz) < 0.04 && el_3charge == 1 && el_passConversionVeto == 1 && el_dxysig < 4 && el_HNMVATight == 1 && el_sc_eta >= 0.800000 && el_sc_eta < 1.444200 && el_pt >= 90.000000 && el_pt < 150.000000'
p474
sg6
S'bin66_el_sc_eta_0p80To1p44_el_pt_90p00To150p00'
p475
sg8
(dp476
g10
(dp477
g12
F1.4442
sg13
F0.8
ssg14
(dp478
g12
I150
sg13
I90
sssg16
S'; 0.800 < el_sc_eta < 1.444; 90.000 < el_pt < 150.000'
p479
sa(dp480
g4
S'tag_Ele_pt > 30 && abs(tag_sc_eta) < 2.17 && el_q*tag_Ele_q < 0 && el_pt > 10 && abs(el_sc_eta) < 2.5 && el_reliso03 < 0.08 && abs(el_dxy) < 0.01 && abs(el_dz) < 0.04 && el_3charge == 1 && el_passConversionVeto == 1 && el_dxysig < 4 && el_HNMVATight == 1 && el_sc_eta >= 1.444200 && el_sc_eta < 1.566000 && el_pt >= 90.000000 && el_pt < 150.000000'
p481
sg6
S'bin67_el_sc_eta_1p44To1p57_el_pt_90p00To150p00'
p482
sg8
(dp483
g10
(dp484
g12
F1.566
sg13
F1.4442
ssg14
(dp485
g12
I150
sg13
I90
sssg16
S'; 1.444 < el_sc_eta < 1.566; 90.000 < el_pt < 150.000'
p486
sa(dp487
g4
S'tag_Ele_pt > 30 && abs(tag_sc_eta) < 2.17 && el_q*tag_Ele_q < 0 && el_pt > 10 && abs(el_sc_eta) < 2.5 && el_reliso03 < 0.08 && abs(el_dxy) < 0.01 && abs(el_dz) < 0.04 && el_3charge == 1 && el_passConversionVeto == 1 && el_dxysig < 4 && el_HNMVATight == 1 && el_sc_eta >= 1.566000 && el_sc_eta < 2.000000 && el_pt >= 90.000000 && el_pt < 150.000000'
p488
sg6
S'bin68_el_sc_eta_1p57To2p00_el_pt_90p00To150p00'
p489
sg8
(dp490
g10
(dp491
g12
F2.0
sg13
F1.566
ssg14
(dp492
g12
I150
sg13
I90
sssg16
S'; 1.566 < el_sc_eta < 2.000; 90.000 < el_pt < 150.000'
p493
sa(dp494
g4
S'tag_Ele_pt > 30 && abs(tag_sc_eta) < 2.17 && el_q*tag_Ele_q < 0 && el_pt > 10 && abs(el_sc_eta) < 2.5 && el_reliso03 < 0.08 && abs(el_dxy) < 0.01 && abs(el_dz) < 0.04 && el_3charge == 1 && el_passConversionVeto == 1 && el_dxysig < 4 && el_HNMVATight == 1 && el_sc_eta >= 2.000000 && el_sc_eta < 2.500000 && el_pt >= 90.000000 && el_pt < 150.000000'
p495
sg6
S'bin69_el_sc_eta_2p00To2p50_el_pt_90p00To150p00'
p496
sg8
(dp497
g10
(dp498
g12
F2.5
sg13
F2.0
ssg14
(dp499
g12
I150
sg13
I90
sssg16
S'; 2.000 < el_sc_eta < 2.500; 90.000 < el_pt < 150.000'
p500
sa(dp501
g4
S'tag_Ele_pt > 30 && abs(tag_sc_eta) < 2.17 && el_q*tag_Ele_q < 0 && el_pt > 10 && abs(el_sc_eta) < 2.5 && el_reliso03 < 0.08 && abs(el_dxy) < 0.01 && abs(el_dz) < 0.04 && el_3charge == 1 && el_passConversionVeto == 1 && el_dxysig < 4 && el_HNMVATight == 1 && el_sc_eta >= -2.500000 && el_sc_eta < -2.000000 && el_pt >= 150.000000 && el_pt < 500.000000'
p502
sg6
S'bin70_el_sc_eta_m2p50Tom2p00_el_pt_150p00To500p00'
p503
sg8
(dp504
g10
(dp505
g12
F-2.0
sg13
F-2.5
ssg14
(dp506
g12
I500
sg13
I150
sssg16
S'; -2.500 < el_sc_eta < -2.000; 150.000 < el_pt < 500.000'
p507
sa(dp508
g4
S'tag_Ele_pt > 30 && abs(tag_sc_eta) < 2.17 && el_q*tag_Ele_q < 0 && el_pt > 10 && abs(el_sc_eta) < 2.5 && el_reliso03 < 0.08 && abs(el_dxy) < 0.01 && abs(el_dz) < 0.04 && el_3charge == 1 && el_passConversionVeto == 1 && el_dxysig < 4 && el_HNMVATight == 1 && el_sc_eta >= -2.000000 && el_sc_eta < -1.566000 && el_pt >= 150.000000 && el_pt < 500.000000'
p509
sg6
S'bin71_el_sc_eta_m2p00Tom1p57_el_pt_150p00To500p00'
p510
sg8
(dp511
g10
(dp512
g12
F-1.566
sg13
F-2.0
ssg14
(dp513
g12
I500
sg13
I150
sssg16
S'; -2.000 < el_sc_eta < -1.566; 150.000 < el_pt < 500.000'
p514
sa(dp515
g4
S'tag_Ele_pt > 30 && abs(tag_sc_eta) < 2.17 && el_q*tag_Ele_q < 0 && el_pt > 10 && abs(el_sc_eta) < 2.5 && el_reliso03 < 0.08 && abs(el_dxy) < 0.01 && abs(el_dz) < 0.04 && el_3charge == 1 && el_passConversionVeto == 1 && el_dxysig < 4 && el_HNMVATight == 1 && el_sc_eta >= -1.566000 && el_sc_eta < -1.444200 && el_pt >= 150.000000 && el_pt < 500.000000'
p516
sg6
S'bin72_el_sc_eta_m1p57Tom1p44_el_pt_150p00To500p00'
p517
sg8
(dp518
g10
(dp519
g12
F-1.4442
sg13
F-1.566
ssg14
(dp520
g12
I500
sg13
I150
sssg16
S'; -1.566 < el_sc_eta < -1.444; 150.000 < el_pt < 500.000'
p521
sa(dp522
g4
S'tag_Ele_pt > 30 && abs(tag_sc_eta) < 2.17 && el_q*tag_Ele_q < 0 && el_pt > 10 && abs(el_sc_eta) < 2.5 && el_reliso03 < 0.08 && abs(el_dxy) < 0.01 && abs(el_dz) < 0.04 && el_3charge == 1 && el_passConversionVeto == 1 && el_dxysig < 4 && el_HNMVATight == 1 && el_sc_eta >= -1.444200 && el_sc_eta < -0.800000 && el_pt >= 150.000000 && el_pt < 500.000000'
p523
sg6
S'bin73_el_sc_eta_m1p44Tom0p80_el_pt_150p00To500p00'
p524
sg8
(dp525
g10
(dp526
g12
F-0.8
sg13
F-1.4442
ssg14
(dp527
g12
I500
sg13
I150
sssg16
S'; -1.444 < el_sc_eta < -0.800; 150.000 < el_pt < 500.000'
p528
sa(dp529
g4
S'tag_Ele_pt > 30 && abs(tag_sc_eta) < 2.17 && el_q*tag_Ele_q < 0 && el_pt > 10 && abs(el_sc_eta) < 2.5 && el_reliso03 < 0.08 && abs(el_dxy) < 0.01 && abs(el_dz) < 0.04 && el_3charge == 1 && el_passConversionVeto == 1 && el_dxysig < 4 && el_HNMVATight == 1 && el_sc_eta >= -0.800000 && el_sc_eta < 0.000000 && el_pt >= 150.000000 && el_pt < 500.000000'
p530
sg6
S'bin74_el_sc_eta_m0p80To0p00_el_pt_150p00To500p00'
p531
sg8
(dp532
g10
(dp533
g12
F0.0
sg13
F-0.8
ssg14
(dp534
g12
I500
sg13
I150
sssg16
S'; -0.800 < el_sc_eta < 0.000; 150.000 < el_pt < 500.000'
p535
sa(dp536
g4
S'tag_Ele_pt > 30 && abs(tag_sc_eta) < 2.17 && el_q*tag_Ele_q < 0 && el_pt > 10 && abs(el_sc_eta) < 2.5 && el_reliso03 < 0.08 && abs(el_dxy) < 0.01 && abs(el_dz) < 0.04 && el_3charge == 1 && el_passConversionVeto == 1 && el_dxysig < 4 && el_HNMVATight == 1 && el_sc_eta >= 0.000000 && el_sc_eta < 0.800000 && el_pt >= 150.000000 && el_pt < 500.000000'
p537
sg6
S'bin75_el_sc_eta_0p00To0p80_el_pt_150p00To500p00'
p538
sg8
(dp539
g10
(dp540
g12
F0.8
sg13
F0.0
ssg14
(dp541
g12
I500
sg13
I150
sssg16
S'; 0.000 < el_sc_eta < 0.800; 150.000 < el_pt < 500.000'
p542
sa(dp543
g4
S'tag_Ele_pt > 30 && abs(tag_sc_eta) < 2.17 && el_q*tag_Ele_q < 0 && el_pt > 10 && abs(el_sc_eta) < 2.5 && el_reliso03 < 0.08 && abs(el_dxy) < 0.01 && abs(el_dz) < 0.04 && el_3charge == 1 && el_passConversionVeto == 1 && el_dxysig < 4 && el_HNMVATight == 1 && el_sc_eta >= 0.800000 && el_sc_eta < 1.444200 && el_pt >= 150.000000 && el_pt < 500.000000'
p544
sg6
S'bin76_el_sc_eta_0p80To1p44_el_pt_150p00To500p00'
p545
sg8
(dp546
g10
(dp547
g12
F1.4442
sg13
F0.8
ssg14
(dp548
g12
I500
sg13
I150
sssg16
S'; 0.800 < el_sc_eta < 1.444; 150.000 < el_pt < 500.000'
p549
sa(dp550
g4
S'tag_Ele_pt > 30 && abs(tag_sc_eta) < 2.17 && el_q*tag_Ele_q < 0 && el_pt > 10 && abs(el_sc_eta) < 2.5 && el_reliso03 < 0.08 && abs(el_dxy) < 0.01 && abs(el_dz) < 0.04 && el_3charge == 1 && el_passConversionVeto == 1 && el_dxysig < 4 && el_HNMVATight == 1 && el_sc_eta >= 1.444200 && el_sc_eta < 1.566000 && el_pt >= 150.000000 && el_pt < 500.000000'
p551
sg6
S'bin77_el_sc_eta_1p44To1p57_el_pt_150p00To500p00'
p552
sg8
(dp553
g10
(dp554
g12
F1.566
sg13
F1.4442
ssg14
(dp555
g12
I500
sg13
I150
sssg16
S'; 1.444 < el_sc_eta < 1.566; 150.000 < el_pt < 500.000'
p556
sa(dp557
g4
S'tag_Ele_pt > 30 && abs(tag_sc_eta) < 2.17 && el_q*tag_Ele_q < 0 && el_pt > 10 && abs(el_sc_eta) < 2.5 && el_reliso03 < 0.08 && abs(el_dxy) < 0.01 && abs(el_dz) < 0.04 && el_3charge == 1 && el_passConversionVeto == 1 && el_dxysig < 4 && el_HNMVATight == 1 && el_sc_eta >= 1.566000 && el_sc_eta < 2.000000 && el_pt >= 150.000000 && el_pt < 500.000000'
p558
sg6
S'bin78_el_sc_eta_1p57To2p00_el_pt_150p00To500p00'
p559
sg8
(dp560
g10
(dp561
g12
F2.0
sg13
F1.566
ssg14
(dp562
g12
I500
sg13
I150
sssg16
S'; 1.566 < el_sc_eta < 2.000; 150.000 < el_pt < 500.000'
p563
sa(dp564
g4
S'tag_Ele_pt > 30 && abs(tag_sc_eta) < 2.17 && el_q*tag_Ele_q < 0 && el_pt > 10 && abs(el_sc_eta) < 2.5 && el_reliso03 < 0.08 && abs(el_dxy) < 0.01 && abs(el_dz) < 0.04 && el_3charge == 1 && el_passConversionVeto == 1 && el_dxysig < 4 && el_HNMVATight == 1 && el_sc_eta >= 2.000000 && el_sc_eta < 2.500000 && el_pt >= 150.000000 && el_pt < 500.000000'
p565
sg6
S'bin79_el_sc_eta_2p00To2p50_el_pt_150p00To500p00'
p566
sg8
(dp567
g10
(dp568
g12
F2.5
sg13
F2.0
ssg14
(dp569
g12
I500
sg13
I150
sssg16
S'; 2.000 < el_sc_eta < 2.500; 150.000 < el_pt < 500.000'
p570
sasg8
(lp571
g10
ag14
as.