(dp0
S'bins'
p1
(lp2
(dp3
S'cut'
p4
S'tag_Ele_pt > 30 && abs(tag_sc_eta) < 2.17 && el_q*tag_Ele_q < 0 && el_pt > 10 && abs(el_sc_eta) < 2.5 && el_reliso03 < 0.08 && abs(el_dxy) < 0.01 && abs(el_dz) < 0.04 && el_3charge == 1 && el_passConversionVeto == 1 && el_dxysig < 4 && el_HNMVATight == 1 && el_sc_eta >= -2.500000 && el_sc_eta < -2.000000 && el_pt >= 0.000000 && el_pt < 7.000000 && tag_Ele_trigMVA > 0.92 && sqrt( 2*event_met_pfmet*tag_Ele_pt*(1-cos(event_met_pfphi-tag_Ele_phi))) < 45 '
p5
sS'name'
p6
S'bin000_el_sc_eta_m2p50Tom2p00_el_pt_0p00To7p00'
p7
sS'vars'
p8
(dp9
S'el_sc_eta'
p10
(dp11
S'max'
p12
F-2.0
sS'min'
p13
F-2.5
ssS'el_pt'
p14
(dp15
g12
I7
sg13
I0
sssS'title'
p16
S'; -2.500 < el_sc_eta < -2.000; 0.000 < el_pt < 7.000'
p17
sa(dp18
g4
S'tag_Ele_pt > 30 && abs(tag_sc_eta) < 2.17 && el_q*tag_Ele_q < 0 && el_pt > 10 && abs(el_sc_eta) < 2.5 && el_reliso03 < 0.08 && abs(el_dxy) < 0.01 && abs(el_dz) < 0.04 && el_3charge == 1 && el_passConversionVeto == 1 && el_dxysig < 4 && el_HNMVATight == 1 && el_sc_eta >= -2.000000 && el_sc_eta < -1.566000 && el_pt >= 0.000000 && el_pt < 7.000000 && tag_Ele_trigMVA > 0.92 && sqrt( 2*event_met_pfmet*tag_Ele_pt*(1-cos(event_met_pfphi-tag_Ele_phi))) < 45 '
p19
sg6
S'bin001_el_sc_eta_m2p00Tom1p57_el_pt_0p00To7p00'
p20
sg8
(dp21
g10
(dp22
g12
F-1.566
sg13
F-2.0
ssg14
(dp23
g12
I7
sg13
I0
sssg16
S'; -2.000 < el_sc_eta < -1.566; 0.000 < el_pt < 7.000'
p24
sa(dp25
g4
S'tag_Ele_pt > 30 && abs(tag_sc_eta) < 2.17 && el_q*tag_Ele_q < 0 && el_pt > 10 && abs(el_sc_eta) < 2.5 && el_reliso03 < 0.08 && abs(el_dxy) < 0.01 && abs(el_dz) < 0.04 && el_3charge == 1 && el_passConversionVeto == 1 && el_dxysig < 4 && el_HNMVATight == 1 && el_sc_eta >= -1.566000 && el_sc_eta < -1.444200 && el_pt >= 0.000000 && el_pt < 7.000000 && tag_Ele_trigMVA > 0.92 && sqrt( 2*event_met_pfmet*tag_Ele_pt*(1-cos(event_met_pfphi-tag_Ele_phi))) < 45 '
p26
sg6
S'bin002_el_sc_eta_m1p57Tom1p44_el_pt_0p00To7p00'
p27
sg8
(dp28
g10
(dp29
g12
F-1.4442
sg13
F-1.566
ssg14
(dp30
g12
I7
sg13
I0
sssg16
S'; -1.566 < el_sc_eta < -1.444; 0.000 < el_pt < 7.000'
p31
sa(dp32
g4
S'tag_Ele_pt > 30 && abs(tag_sc_eta) < 2.17 && el_q*tag_Ele_q < 0 && el_pt > 10 && abs(el_sc_eta) < 2.5 && el_reliso03 < 0.08 && abs(el_dxy) < 0.01 && abs(el_dz) < 0.04 && el_3charge == 1 && el_passConversionVeto == 1 && el_dxysig < 4 && el_HNMVATight == 1 && el_sc_eta >= -1.444200 && el_sc_eta < -0.800000 && el_pt >= 0.000000 && el_pt < 7.000000 && tag_Ele_trigMVA > 0.92 && sqrt( 2*event_met_pfmet*tag_Ele_pt*(1-cos(event_met_pfphi-tag_Ele_phi))) < 45 '
p33
sg6
S'bin003_el_sc_eta_m1p44Tom0p80_el_pt_0p00To7p00'
p34
sg8
(dp35
g10
(dp36
g12
F-0.8
sg13
F-1.4442
ssg14
(dp37
g12
I7
sg13
I0
sssg16
S'; -1.444 < el_sc_eta < -0.800; 0.000 < el_pt < 7.000'
p38
sa(dp39
g4
S'tag_Ele_pt > 30 && abs(tag_sc_eta) < 2.17 && el_q*tag_Ele_q < 0 && el_pt > 10 && abs(el_sc_eta) < 2.5 && el_reliso03 < 0.08 && abs(el_dxy) < 0.01 && abs(el_dz) < 0.04 && el_3charge == 1 && el_passConversionVeto == 1 && el_dxysig < 4 && el_HNMVATight == 1 && el_sc_eta >= -0.800000 && el_sc_eta < 0.000000 && el_pt >= 0.000000 && el_pt < 7.000000 && tag_Ele_trigMVA > 0.92 && sqrt( 2*event_met_pfmet*tag_Ele_pt*(1-cos(event_met_pfphi-tag_Ele_phi))) < 45 '
p40
sg6
S'bin004_el_sc_eta_m0p80To0p00_el_pt_0p00To7p00'
p41
sg8
(dp42
g10
(dp43
g12
F0.0
sg13
F-0.8
ssg14
(dp44
g12
I7
sg13
I0
sssg16
S'; -0.800 < el_sc_eta < 0.000; 0.000 < el_pt < 7.000'
p45
sa(dp46
g4
S'tag_Ele_pt > 30 && abs(tag_sc_eta) < 2.17 && el_q*tag_Ele_q < 0 && el_pt > 10 && abs(el_sc_eta) < 2.5 && el_reliso03 < 0.08 && abs(el_dxy) < 0.01 && abs(el_dz) < 0.04 && el_3charge == 1 && el_passConversionVeto == 1 && el_dxysig < 4 && el_HNMVATight == 1 && el_sc_eta >= 0.000000 && el_sc_eta < 0.800000 && el_pt >= 0.000000 && el_pt < 7.000000 && tag_Ele_trigMVA > 0.92 && sqrt( 2*event_met_pfmet*tag_Ele_pt*(1-cos(event_met_pfphi-tag_Ele_phi))) < 45 '
p47
sg6
S'bin005_el_sc_eta_0p00To0p80_el_pt_0p00To7p00'
p48
sg8
(dp49
g10
(dp50
g12
F0.8
sg13
F0.0
ssg14
(dp51
g12
I7
sg13
I0
sssg16
S'; 0.000 < el_sc_eta < 0.800; 0.000 < el_pt < 7.000'
p52
sa(dp53
g4
S'tag_Ele_pt > 30 && abs(tag_sc_eta) < 2.17 && el_q*tag_Ele_q < 0 && el_pt > 10 && abs(el_sc_eta) < 2.5 && el_reliso03 < 0.08 && abs(el_dxy) < 0.01 && abs(el_dz) < 0.04 && el_3charge == 1 && el_passConversionVeto == 1 && el_dxysig < 4 && el_HNMVATight == 1 && el_sc_eta >= 0.800000 && el_sc_eta < 1.444200 && el_pt >= 0.000000 && el_pt < 7.000000 && tag_Ele_trigMVA > 0.92 && sqrt( 2*event_met_pfmet*tag_Ele_pt*(1-cos(event_met_pfphi-tag_Ele_phi))) < 45 '
p54
sg6
S'bin006_el_sc_eta_0p80To1p44_el_pt_0p00To7p00'
p55
sg8
(dp56
g10
(dp57
g12
F1.4442
sg13
F0.8
ssg14
(dp58
g12
I7
sg13
I0
sssg16
S'; 0.800 < el_sc_eta < 1.444; 0.000 < el_pt < 7.000'
p59
sa(dp60
g4
S'tag_Ele_pt > 30 && abs(tag_sc_eta) < 2.17 && el_q*tag_Ele_q < 0 && el_pt > 10 && abs(el_sc_eta) < 2.5 && el_reliso03 < 0.08 && abs(el_dxy) < 0.01 && abs(el_dz) < 0.04 && el_3charge == 1 && el_passConversionVeto == 1 && el_dxysig < 4 && el_HNMVATight == 1 && el_sc_eta >= 1.444200 && el_sc_eta < 1.566000 && el_pt >= 0.000000 && el_pt < 7.000000 && tag_Ele_trigMVA > 0.92 && sqrt( 2*event_met_pfmet*tag_Ele_pt*(1-cos(event_met_pfphi-tag_Ele_phi))) < 45 '
p61
sg6
S'bin007_el_sc_eta_1p44To1p57_el_pt_0p00To7p00'
p62
sg8
(dp63
g10
(dp64
g12
F1.566
sg13
F1.4442
ssg14
(dp65
g12
I7
sg13
I0
sssg16
S'; 1.444 < el_sc_eta < 1.566; 0.000 < el_pt < 7.000'
p66
sa(dp67
g4
S'tag_Ele_pt > 30 && abs(tag_sc_eta) < 2.17 && el_q*tag_Ele_q < 0 && el_pt > 10 && abs(el_sc_eta) < 2.5 && el_reliso03 < 0.08 && abs(el_dxy) < 0.01 && abs(el_dz) < 0.04 && el_3charge == 1 && el_passConversionVeto == 1 && el_dxysig < 4 && el_HNMVATight == 1 && el_sc_eta >= 1.566000 && el_sc_eta < 2.000000 && el_pt >= 0.000000 && el_pt < 7.000000 && tag_Ele_trigMVA > 0.92 && sqrt( 2*event_met_pfmet*tag_Ele_pt*(1-cos(event_met_pfphi-tag_Ele_phi))) < 45 '
p68
sg6
S'bin008_el_sc_eta_1p57To2p00_el_pt_0p00To7p00'
p69
sg8
(dp70
g10
(dp71
g12
F2.0
sg13
F1.566
ssg14
(dp72
g12
I7
sg13
I0
sssg16
S'; 1.566 < el_sc_eta < 2.000; 0.000 < el_pt < 7.000'
p73
sa(dp74
g4
S'tag_Ele_pt > 30 && abs(tag_sc_eta) < 2.17 && el_q*tag_Ele_q < 0 && el_pt > 10 && abs(el_sc_eta) < 2.5 && el_reliso03 < 0.08 && abs(el_dxy) < 0.01 && abs(el_dz) < 0.04 && el_3charge == 1 && el_passConversionVeto == 1 && el_dxysig < 4 && el_HNMVATight == 1 && el_sc_eta >= 2.000000 && el_sc_eta < 2.500000 && el_pt >= 0.000000 && el_pt < 7.000000 && tag_Ele_trigMVA > 0.92 && sqrt( 2*event_met_pfmet*tag_Ele_pt*(1-cos(event_met_pfphi-tag_Ele_phi))) < 45 '
p75
sg6
S'bin009_el_sc_eta_2p00To2p50_el_pt_0p00To7p00'
p76
sg8
(dp77
g10
(dp78
g12
F2.5
sg13
F2.0
ssg14
(dp79
g12
I7
sg13
I0
sssg16
S'; 2.000 < el_sc_eta < 2.500; 0.000 < el_pt < 7.000'
p80
sa(dp81
g4
S'tag_Ele_pt > 30 && abs(tag_sc_eta) < 2.17 && el_q*tag_Ele_q < 0 && el_pt > 10 && abs(el_sc_eta) < 2.5 && el_reliso03 < 0.08 && abs(el_dxy) < 0.01 && abs(el_dz) < 0.04 && el_3charge == 1 && el_passConversionVeto == 1 && el_dxysig < 4 && el_HNMVATight == 1 && el_sc_eta >= -2.500000 && el_sc_eta < -2.000000 && el_pt >= 7.000000 && el_pt < 10.000000 && tag_Ele_trigMVA > 0.92 && sqrt( 2*event_met_pfmet*tag_Ele_pt*(1-cos(event_met_pfphi-tag_Ele_phi))) < 45 '
p82
sg6
S'bin010_el_sc_eta_m2p50Tom2p00_el_pt_7p00To10p00'
p83
sg8
(dp84
g10
(dp85
g12
F-2.0
sg13
F-2.5
ssg14
(dp86
g12
I10
sg13
I7
sssg16
S'; -2.500 < el_sc_eta < -2.000; 7.000 < el_pt < 10.000'
p87
sa(dp88
g4
S'tag_Ele_pt > 30 && abs(tag_sc_eta) < 2.17 && el_q*tag_Ele_q < 0 && el_pt > 10 && abs(el_sc_eta) < 2.5 && el_reliso03 < 0.08 && abs(el_dxy) < 0.01 && abs(el_dz) < 0.04 && el_3charge == 1 && el_passConversionVeto == 1 && el_dxysig < 4 && el_HNMVATight == 1 && el_sc_eta >= -2.000000 && el_sc_eta < -1.566000 && el_pt >= 7.000000 && el_pt < 10.000000 && tag_Ele_trigMVA > 0.92 && sqrt( 2*event_met_pfmet*tag_Ele_pt*(1-cos(event_met_pfphi-tag_Ele_phi))) < 45 '
p89
sg6
S'bin011_el_sc_eta_m2p00Tom1p57_el_pt_7p00To10p00'
p90
sg8
(dp91
g10
(dp92
g12
F-1.566
sg13
F-2.0
ssg14
(dp93
g12
I10
sg13
I7
sssg16
S'; -2.000 < el_sc_eta < -1.566; 7.000 < el_pt < 10.000'
p94
sa(dp95
g4
S'tag_Ele_pt > 30 && abs(tag_sc_eta) < 2.17 && el_q*tag_Ele_q < 0 && el_pt > 10 && abs(el_sc_eta) < 2.5 && el_reliso03 < 0.08 && abs(el_dxy) < 0.01 && abs(el_dz) < 0.04 && el_3charge == 1 && el_passConversionVeto == 1 && el_dxysig < 4 && el_HNMVATight == 1 && el_sc_eta >= -1.566000 && el_sc_eta < -1.444200 && el_pt >= 7.000000 && el_pt < 10.000000 && tag_Ele_trigMVA > 0.92 && sqrt( 2*event_met_pfmet*tag_Ele_pt*(1-cos(event_met_pfphi-tag_Ele_phi))) < 45 '
p96
sg6
S'bin012_el_sc_eta_m1p57Tom1p44_el_pt_7p00To10p00'
p97
sg8
(dp98
g10
(dp99
g12
F-1.4442
sg13
F-1.566
ssg14
(dp100
g12
I10
sg13
I7
sssg16
S'; -1.566 < el_sc_eta < -1.444; 7.000 < el_pt < 10.000'
p101
sa(dp102
g4
S'tag_Ele_pt > 30 && abs(tag_sc_eta) < 2.17 && el_q*tag_Ele_q < 0 && el_pt > 10 && abs(el_sc_eta) < 2.5 && el_reliso03 < 0.08 && abs(el_dxy) < 0.01 && abs(el_dz) < 0.04 && el_3charge == 1 && el_passConversionVeto == 1 && el_dxysig < 4 && el_HNMVATight == 1 && el_sc_eta >= -1.444200 && el_sc_eta < -0.800000 && el_pt >= 7.000000 && el_pt < 10.000000 && tag_Ele_trigMVA > 0.92 && sqrt( 2*event_met_pfmet*tag_Ele_pt*(1-cos(event_met_pfphi-tag_Ele_phi))) < 45 '
p103
sg6
S'bin013_el_sc_eta_m1p44Tom0p80_el_pt_7p00To10p00'
p104
sg8
(dp105
g10
(dp106
g12
F-0.8
sg13
F-1.4442
ssg14
(dp107
g12
I10
sg13
I7
sssg16
S'; -1.444 < el_sc_eta < -0.800; 7.000 < el_pt < 10.000'
p108
sa(dp109
g4
S'tag_Ele_pt > 30 && abs(tag_sc_eta) < 2.17 && el_q*tag_Ele_q < 0 && el_pt > 10 && abs(el_sc_eta) < 2.5 && el_reliso03 < 0.08 && abs(el_dxy) < 0.01 && abs(el_dz) < 0.04 && el_3charge == 1 && el_passConversionVeto == 1 && el_dxysig < 4 && el_HNMVATight == 1 && el_sc_eta >= -0.800000 && el_sc_eta < 0.000000 && el_pt >= 7.000000 && el_pt < 10.000000 && tag_Ele_trigMVA > 0.92 && sqrt( 2*event_met_pfmet*tag_Ele_pt*(1-cos(event_met_pfphi-tag_Ele_phi))) < 45 '
p110
sg6
S'bin014_el_sc_eta_m0p80To0p00_el_pt_7p00To10p00'
p111
sg8
(dp112
g10
(dp113
g12
F0.0
sg13
F-0.8
ssg14
(dp114
g12
I10
sg13
I7
sssg16
S'; -0.800 < el_sc_eta < 0.000; 7.000 < el_pt < 10.000'
p115
sa(dp116
g4
S'tag_Ele_pt > 30 && abs(tag_sc_eta) < 2.17 && el_q*tag_Ele_q < 0 && el_pt > 10 && abs(el_sc_eta) < 2.5 && el_reliso03 < 0.08 && abs(el_dxy) < 0.01 && abs(el_dz) < 0.04 && el_3charge == 1 && el_passConversionVeto == 1 && el_dxysig < 4 && el_HNMVATight == 1 && el_sc_eta >= 0.000000 && el_sc_eta < 0.800000 && el_pt >= 7.000000 && el_pt < 10.000000 && tag_Ele_trigMVA > 0.92 && sqrt( 2*event_met_pfmet*tag_Ele_pt*(1-cos(event_met_pfphi-tag_Ele_phi))) < 45 '
p117
sg6
S'bin015_el_sc_eta_0p00To0p80_el_pt_7p00To10p00'
p118
sg8
(dp119
g10
(dp120
g12
F0.8
sg13
F0.0
ssg14
(dp121
g12
I10
sg13
I7
sssg16
S'; 0.000 < el_sc_eta < 0.800; 7.000 < el_pt < 10.000'
p122
sa(dp123
g4
S'tag_Ele_pt > 30 && abs(tag_sc_eta) < 2.17 && el_q*tag_Ele_q < 0 && el_pt > 10 && abs(el_sc_eta) < 2.5 && el_reliso03 < 0.08 && abs(el_dxy) < 0.01 && abs(el_dz) < 0.04 && el_3charge == 1 && el_passConversionVeto == 1 && el_dxysig < 4 && el_HNMVATight == 1 && el_sc_eta >= 0.800000 && el_sc_eta < 1.444200 && el_pt >= 7.000000 && el_pt < 10.000000 && tag_Ele_trigMVA > 0.92 && sqrt( 2*event_met_pfmet*tag_Ele_pt*(1-cos(event_met_pfphi-tag_Ele_phi))) < 45 '
p124
sg6
S'bin016_el_sc_eta_0p80To1p44_el_pt_7p00To10p00'
p125
sg8
(dp126
g10
(dp127
g12
F1.4442
sg13
F0.8
ssg14
(dp128
g12
I10
sg13
I7
sssg16
S'; 0.800 < el_sc_eta < 1.444; 7.000 < el_pt < 10.000'
p129
sa(dp130
g4
S'tag_Ele_pt > 30 && abs(tag_sc_eta) < 2.17 && el_q*tag_Ele_q < 0 && el_pt > 10 && abs(el_sc_eta) < 2.5 && el_reliso03 < 0.08 && abs(el_dxy) < 0.01 && abs(el_dz) < 0.04 && el_3charge == 1 && el_passConversionVeto == 1 && el_dxysig < 4 && el_HNMVATight == 1 && el_sc_eta >= 1.444200 && el_sc_eta < 1.566000 && el_pt >= 7.000000 && el_pt < 10.000000 && tag_Ele_trigMVA > 0.92 && sqrt( 2*event_met_pfmet*tag_Ele_pt*(1-cos(event_met_pfphi-tag_Ele_phi))) < 45 '
p131
sg6
S'bin017_el_sc_eta_1p44To1p57_el_pt_7p00To10p00'
p132
sg8
(dp133
g10
(dp134
g12
F1.566
sg13
F1.4442
ssg14
(dp135
g12
I10
sg13
I7
sssg16
S'; 1.444 < el_sc_eta < 1.566; 7.000 < el_pt < 10.000'
p136
sa(dp137
g4
S'tag_Ele_pt > 30 && abs(tag_sc_eta) < 2.17 && el_q*tag_Ele_q < 0 && el_pt > 10 && abs(el_sc_eta) < 2.5 && el_reliso03 < 0.08 && abs(el_dxy) < 0.01 && abs(el_dz) < 0.04 && el_3charge == 1 && el_passConversionVeto == 1 && el_dxysig < 4 && el_HNMVATight == 1 && el_sc_eta >= 1.566000 && el_sc_eta < 2.000000 && el_pt >= 7.000000 && el_pt < 10.000000 && tag_Ele_trigMVA > 0.92 && sqrt( 2*event_met_pfmet*tag_Ele_pt*(1-cos(event_met_pfphi-tag_Ele_phi))) < 45 '
p138
sg6
S'bin018_el_sc_eta_1p57To2p00_el_pt_7p00To10p00'
p139
sg8
(dp140
g10
(dp141
g12
F2.0
sg13
F1.566
ssg14
(dp142
g12
I10
sg13
I7
sssg16
S'; 1.566 < el_sc_eta < 2.000; 7.000 < el_pt < 10.000'
p143
sa(dp144
g4
S'tag_Ele_pt > 30 && abs(tag_sc_eta) < 2.17 && el_q*tag_Ele_q < 0 && el_pt > 10 && abs(el_sc_eta) < 2.5 && el_reliso03 < 0.08 && abs(el_dxy) < 0.01 && abs(el_dz) < 0.04 && el_3charge == 1 && el_passConversionVeto == 1 && el_dxysig < 4 && el_HNMVATight == 1 && el_sc_eta >= 2.000000 && el_sc_eta < 2.500000 && el_pt >= 7.000000 && el_pt < 10.000000 && tag_Ele_trigMVA > 0.92 && sqrt( 2*event_met_pfmet*tag_Ele_pt*(1-cos(event_met_pfphi-tag_Ele_phi))) < 45 '
p145
sg6
S'bin019_el_sc_eta_2p00To2p50_el_pt_7p00To10p00'
p146
sg8
(dp147
g10
(dp148
g12
F2.5
sg13
F2.0
ssg14
(dp149
g12
I10
sg13
I7
sssg16
S'; 2.000 < el_sc_eta < 2.500; 7.000 < el_pt < 10.000'
p150
sa(dp151
g4
S'tag_Ele_pt > 30 && abs(tag_sc_eta) < 2.17 && el_q*tag_Ele_q < 0 && el_pt > 10 && abs(el_sc_eta) < 2.5 && el_reliso03 < 0.08 && abs(el_dxy) < 0.01 && abs(el_dz) < 0.04 && el_3charge == 1 && el_passConversionVeto == 1 && el_dxysig < 4 && el_HNMVATight == 1 && el_sc_eta >= -2.500000 && el_sc_eta < -2.000000 && el_pt >= 10.000000 && el_pt < 12.000000 && tag_Ele_trigMVA > 0.92 && sqrt( 2*event_met_pfmet*tag_Ele_pt*(1-cos(event_met_pfphi-tag_Ele_phi))) < 45 '
p152
sg6
S'bin020_el_sc_eta_m2p50Tom2p00_el_pt_10p00To12p00'
p153
sg8
(dp154
g10
(dp155
g12
F-2.0
sg13
F-2.5
ssg14
(dp156
g12
I12
sg13
I10
sssg16
S'; -2.500 < el_sc_eta < -2.000; 10.000 < el_pt < 12.000'
p157
sa(dp158
g4
S'tag_Ele_pt > 30 && abs(tag_sc_eta) < 2.17 && el_q*tag_Ele_q < 0 && el_pt > 10 && abs(el_sc_eta) < 2.5 && el_reliso03 < 0.08 && abs(el_dxy) < 0.01 && abs(el_dz) < 0.04 && el_3charge == 1 && el_passConversionVeto == 1 && el_dxysig < 4 && el_HNMVATight == 1 && el_sc_eta >= -2.000000 && el_sc_eta < -1.566000 && el_pt >= 10.000000 && el_pt < 12.000000 && tag_Ele_trigMVA > 0.92 && sqrt( 2*event_met_pfmet*tag_Ele_pt*(1-cos(event_met_pfphi-tag_Ele_phi))) < 45 '
p159
sg6
S'bin021_el_sc_eta_m2p00Tom1p57_el_pt_10p00To12p00'
p160
sg8
(dp161
g10
(dp162
g12
F-1.566
sg13
F-2.0
ssg14
(dp163
g12
I12
sg13
I10
sssg16
S'; -2.000 < el_sc_eta < -1.566; 10.000 < el_pt < 12.000'
p164
sa(dp165
g4
S'tag_Ele_pt > 30 && abs(tag_sc_eta) < 2.17 && el_q*tag_Ele_q < 0 && el_pt > 10 && abs(el_sc_eta) < 2.5 && el_reliso03 < 0.08 && abs(el_dxy) < 0.01 && abs(el_dz) < 0.04 && el_3charge == 1 && el_passConversionVeto == 1 && el_dxysig < 4 && el_HNMVATight == 1 && el_sc_eta >= -1.566000 && el_sc_eta < -1.444200 && el_pt >= 10.000000 && el_pt < 12.000000 && tag_Ele_trigMVA > 0.92 && sqrt( 2*event_met_pfmet*tag_Ele_pt*(1-cos(event_met_pfphi-tag_Ele_phi))) < 45 '
p166
sg6
S'bin022_el_sc_eta_m1p57Tom1p44_el_pt_10p00To12p00'
p167
sg8
(dp168
g10
(dp169
g12
F-1.4442
sg13
F-1.566
ssg14
(dp170
g12
I12
sg13
I10
sssg16
S'; -1.566 < el_sc_eta < -1.444; 10.000 < el_pt < 12.000'
p171
sa(dp172
g4
S'tag_Ele_pt > 30 && abs(tag_sc_eta) < 2.17 && el_q*tag_Ele_q < 0 && el_pt > 10 && abs(el_sc_eta) < 2.5 && el_reliso03 < 0.08 && abs(el_dxy) < 0.01 && abs(el_dz) < 0.04 && el_3charge == 1 && el_passConversionVeto == 1 && el_dxysig < 4 && el_HNMVATight == 1 && el_sc_eta >= -1.444200 && el_sc_eta < -0.800000 && el_pt >= 10.000000 && el_pt < 12.000000 && tag_Ele_trigMVA > 0.92 && sqrt( 2*event_met_pfmet*tag_Ele_pt*(1-cos(event_met_pfphi-tag_Ele_phi))) < 45 '
p173
sg6
S'bin023_el_sc_eta_m1p44Tom0p80_el_pt_10p00To12p00'
p174
sg8
(dp175
g10
(dp176
g12
F-0.8
sg13
F-1.4442
ssg14
(dp177
g12
I12
sg13
I10
sssg16
S'; -1.444 < el_sc_eta < -0.800; 10.000 < el_pt < 12.000'
p178
sa(dp179
g4
S'tag_Ele_pt > 30 && abs(tag_sc_eta) < 2.17 && el_q*tag_Ele_q < 0 && el_pt > 10 && abs(el_sc_eta) < 2.5 && el_reliso03 < 0.08 && abs(el_dxy) < 0.01 && abs(el_dz) < 0.04 && el_3charge == 1 && el_passConversionVeto == 1 && el_dxysig < 4 && el_HNMVATight == 1 && el_sc_eta >= -0.800000 && el_sc_eta < 0.000000 && el_pt >= 10.000000 && el_pt < 12.000000 && tag_Ele_trigMVA > 0.92 && sqrt( 2*event_met_pfmet*tag_Ele_pt*(1-cos(event_met_pfphi-tag_Ele_phi))) < 45 '
p180
sg6
S'bin024_el_sc_eta_m0p80To0p00_el_pt_10p00To12p00'
p181
sg8
(dp182
g10
(dp183
g12
F0.0
sg13
F-0.8
ssg14
(dp184
g12
I12
sg13
I10
sssg16
S'; -0.800 < el_sc_eta < 0.000; 10.000 < el_pt < 12.000'
p185
sa(dp186
g4
S'tag_Ele_pt > 30 && abs(tag_sc_eta) < 2.17 && el_q*tag_Ele_q < 0 && el_pt > 10 && abs(el_sc_eta) < 2.5 && el_reliso03 < 0.08 && abs(el_dxy) < 0.01 && abs(el_dz) < 0.04 && el_3charge == 1 && el_passConversionVeto == 1 && el_dxysig < 4 && el_HNMVATight == 1 && el_sc_eta >= 0.000000 && el_sc_eta < 0.800000 && el_pt >= 10.000000 && el_pt < 12.000000 && tag_Ele_trigMVA > 0.92 && sqrt( 2*event_met_pfmet*tag_Ele_pt*(1-cos(event_met_pfphi-tag_Ele_phi))) < 45 '
p187
sg6
S'bin025_el_sc_eta_0p00To0p80_el_pt_10p00To12p00'
p188
sg8
(dp189
g10
(dp190
g12
F0.8
sg13
F0.0
ssg14
(dp191
g12
I12
sg13
I10
sssg16
S'; 0.000 < el_sc_eta < 0.800; 10.000 < el_pt < 12.000'
p192
sa(dp193
g4
S'tag_Ele_pt > 30 && abs(tag_sc_eta) < 2.17 && el_q*tag_Ele_q < 0 && el_pt > 10 && abs(el_sc_eta) < 2.5 && el_reliso03 < 0.08 && abs(el_dxy) < 0.01 && abs(el_dz) < 0.04 && el_3charge == 1 && el_passConversionVeto == 1 && el_dxysig < 4 && el_HNMVATight == 1 && el_sc_eta >= 0.800000 && el_sc_eta < 1.444200 && el_pt >= 10.000000 && el_pt < 12.000000 && tag_Ele_trigMVA > 0.92 && sqrt( 2*event_met_pfmet*tag_Ele_pt*(1-cos(event_met_pfphi-tag_Ele_phi))) < 45 '
p194
sg6
S'bin026_el_sc_eta_0p80To1p44_el_pt_10p00To12p00'
p195
sg8
(dp196
g10
(dp197
g12
F1.4442
sg13
F0.8
ssg14
(dp198
g12
I12
sg13
I10
sssg16
S'; 0.800 < el_sc_eta < 1.444; 10.000 < el_pt < 12.000'
p199
sa(dp200
g4
S'tag_Ele_pt > 30 && abs(tag_sc_eta) < 2.17 && el_q*tag_Ele_q < 0 && el_pt > 10 && abs(el_sc_eta) < 2.5 && el_reliso03 < 0.08 && abs(el_dxy) < 0.01 && abs(el_dz) < 0.04 && el_3charge == 1 && el_passConversionVeto == 1 && el_dxysig < 4 && el_HNMVATight == 1 && el_sc_eta >= 1.444200 && el_sc_eta < 1.566000 && el_pt >= 10.000000 && el_pt < 12.000000 && tag_Ele_trigMVA > 0.92 && sqrt( 2*event_met_pfmet*tag_Ele_pt*(1-cos(event_met_pfphi-tag_Ele_phi))) < 45 '
p201
sg6
S'bin027_el_sc_eta_1p44To1p57_el_pt_10p00To12p00'
p202
sg8
(dp203
g10
(dp204
g12
F1.566
sg13
F1.4442
ssg14
(dp205
g12
I12
sg13
I10
sssg16
S'; 1.444 < el_sc_eta < 1.566; 10.000 < el_pt < 12.000'
p206
sa(dp207
g4
S'tag_Ele_pt > 30 && abs(tag_sc_eta) < 2.17 && el_q*tag_Ele_q < 0 && el_pt > 10 && abs(el_sc_eta) < 2.5 && el_reliso03 < 0.08 && abs(el_dxy) < 0.01 && abs(el_dz) < 0.04 && el_3charge == 1 && el_passConversionVeto == 1 && el_dxysig < 4 && el_HNMVATight == 1 && el_sc_eta >= 1.566000 && el_sc_eta < 2.000000 && el_pt >= 10.000000 && el_pt < 12.000000 && tag_Ele_trigMVA > 0.92 && sqrt( 2*event_met_pfmet*tag_Ele_pt*(1-cos(event_met_pfphi-tag_Ele_phi))) < 45 '
p208
sg6
S'bin028_el_sc_eta_1p57To2p00_el_pt_10p00To12p00'
p209
sg8
(dp210
g10
(dp211
g12
F2.0
sg13
F1.566
ssg14
(dp212
g12
I12
sg13
I10
sssg16
S'; 1.566 < el_sc_eta < 2.000; 10.000 < el_pt < 12.000'
p213
sa(dp214
g4
S'tag_Ele_pt > 30 && abs(tag_sc_eta) < 2.17 && el_q*tag_Ele_q < 0 && el_pt > 10 && abs(el_sc_eta) < 2.5 && el_reliso03 < 0.08 && abs(el_dxy) < 0.01 && abs(el_dz) < 0.04 && el_3charge == 1 && el_passConversionVeto == 1 && el_dxysig < 4 && el_HNMVATight == 1 && el_sc_eta >= 2.000000 && el_sc_eta < 2.500000 && el_pt >= 10.000000 && el_pt < 12.000000 && tag_Ele_trigMVA > 0.92 && sqrt( 2*event_met_pfmet*tag_Ele_pt*(1-cos(event_met_pfphi-tag_Ele_phi))) < 45 '
p215
sg6
S'bin029_el_sc_eta_2p00To2p50_el_pt_10p00To12p00'
p216
sg8
(dp217
g10
(dp218
g12
F2.5
sg13
F2.0
ssg14
(dp219
g12
I12
sg13
I10
sssg16
S'; 2.000 < el_sc_eta < 2.500; 10.000 < el_pt < 12.000'
p220
sa(dp221
g4
S'tag_Ele_pt > 30 && abs(tag_sc_eta) < 2.17 && el_q*tag_Ele_q < 0 && el_pt > 10 && abs(el_sc_eta) < 2.5 && el_reliso03 < 0.08 && abs(el_dxy) < 0.01 && abs(el_dz) < 0.04 && el_3charge == 1 && el_passConversionVeto == 1 && el_dxysig < 4 && el_HNMVATight == 1 && el_sc_eta >= -2.500000 && el_sc_eta < -2.000000 && el_pt >= 12.000000 && el_pt < 14.000000 && tag_Ele_trigMVA > 0.92 && sqrt( 2*event_met_pfmet*tag_Ele_pt*(1-cos(event_met_pfphi-tag_Ele_phi))) < 45 '
p222
sg6
S'bin030_el_sc_eta_m2p50Tom2p00_el_pt_12p00To14p00'
p223
sg8
(dp224
g10
(dp225
g12
F-2.0
sg13
F-2.5
ssg14
(dp226
g12
I14
sg13
I12
sssg16
S'; -2.500 < el_sc_eta < -2.000; 12.000 < el_pt < 14.000'
p227
sa(dp228
g4
S'tag_Ele_pt > 30 && abs(tag_sc_eta) < 2.17 && el_q*tag_Ele_q < 0 && el_pt > 10 && abs(el_sc_eta) < 2.5 && el_reliso03 < 0.08 && abs(el_dxy) < 0.01 && abs(el_dz) < 0.04 && el_3charge == 1 && el_passConversionVeto == 1 && el_dxysig < 4 && el_HNMVATight == 1 && el_sc_eta >= -2.000000 && el_sc_eta < -1.566000 && el_pt >= 12.000000 && el_pt < 14.000000 && tag_Ele_trigMVA > 0.92 && sqrt( 2*event_met_pfmet*tag_Ele_pt*(1-cos(event_met_pfphi-tag_Ele_phi))) < 45 '
p229
sg6
S'bin031_el_sc_eta_m2p00Tom1p57_el_pt_12p00To14p00'
p230
sg8
(dp231
g10
(dp232
g12
F-1.566
sg13
F-2.0
ssg14
(dp233
g12
I14
sg13
I12
sssg16
S'; -2.000 < el_sc_eta < -1.566; 12.000 < el_pt < 14.000'
p234
sa(dp235
g4
S'tag_Ele_pt > 30 && abs(tag_sc_eta) < 2.17 && el_q*tag_Ele_q < 0 && el_pt > 10 && abs(el_sc_eta) < 2.5 && el_reliso03 < 0.08 && abs(el_dxy) < 0.01 && abs(el_dz) < 0.04 && el_3charge == 1 && el_passConversionVeto == 1 && el_dxysig < 4 && el_HNMVATight == 1 && el_sc_eta >= -1.566000 && el_sc_eta < -1.444200 && el_pt >= 12.000000 && el_pt < 14.000000 && tag_Ele_trigMVA > 0.92 && sqrt( 2*event_met_pfmet*tag_Ele_pt*(1-cos(event_met_pfphi-tag_Ele_phi))) < 45 '
p236
sg6
S'bin032_el_sc_eta_m1p57Tom1p44_el_pt_12p00To14p00'
p237
sg8
(dp238
g10
(dp239
g12
F-1.4442
sg13
F-1.566
ssg14
(dp240
g12
I14
sg13
I12
sssg16
S'; -1.566 < el_sc_eta < -1.444; 12.000 < el_pt < 14.000'
p241
sa(dp242
g4
S'tag_Ele_pt > 30 && abs(tag_sc_eta) < 2.17 && el_q*tag_Ele_q < 0 && el_pt > 10 && abs(el_sc_eta) < 2.5 && el_reliso03 < 0.08 && abs(el_dxy) < 0.01 && abs(el_dz) < 0.04 && el_3charge == 1 && el_passConversionVeto == 1 && el_dxysig < 4 && el_HNMVATight == 1 && el_sc_eta >= -1.444200 && el_sc_eta < -0.800000 && el_pt >= 12.000000 && el_pt < 14.000000 && tag_Ele_trigMVA > 0.92 && sqrt( 2*event_met_pfmet*tag_Ele_pt*(1-cos(event_met_pfphi-tag_Ele_phi))) < 45 '
p243
sg6
S'bin033_el_sc_eta_m1p44Tom0p80_el_pt_12p00To14p00'
p244
sg8
(dp245
g10
(dp246
g12
F-0.8
sg13
F-1.4442
ssg14
(dp247
g12
I14
sg13
I12
sssg16
S'; -1.444 < el_sc_eta < -0.800; 12.000 < el_pt < 14.000'
p248
sa(dp249
g4
S'tag_Ele_pt > 30 && abs(tag_sc_eta) < 2.17 && el_q*tag_Ele_q < 0 && el_pt > 10 && abs(el_sc_eta) < 2.5 && el_reliso03 < 0.08 && abs(el_dxy) < 0.01 && abs(el_dz) < 0.04 && el_3charge == 1 && el_passConversionVeto == 1 && el_dxysig < 4 && el_HNMVATight == 1 && el_sc_eta >= -0.800000 && el_sc_eta < 0.000000 && el_pt >= 12.000000 && el_pt < 14.000000 && tag_Ele_trigMVA > 0.92 && sqrt( 2*event_met_pfmet*tag_Ele_pt*(1-cos(event_met_pfphi-tag_Ele_phi))) < 45 '
p250
sg6
S'bin034_el_sc_eta_m0p80To0p00_el_pt_12p00To14p00'
p251
sg8
(dp252
g10
(dp253
g12
F0.0
sg13
F-0.8
ssg14
(dp254
g12
I14
sg13
I12
sssg16
S'; -0.800 < el_sc_eta < 0.000; 12.000 < el_pt < 14.000'
p255
sa(dp256
g4
S'tag_Ele_pt > 30 && abs(tag_sc_eta) < 2.17 && el_q*tag_Ele_q < 0 && el_pt > 10 && abs(el_sc_eta) < 2.5 && el_reliso03 < 0.08 && abs(el_dxy) < 0.01 && abs(el_dz) < 0.04 && el_3charge == 1 && el_passConversionVeto == 1 && el_dxysig < 4 && el_HNMVATight == 1 && el_sc_eta >= 0.000000 && el_sc_eta < 0.800000 && el_pt >= 12.000000 && el_pt < 14.000000 && tag_Ele_trigMVA > 0.92 && sqrt( 2*event_met_pfmet*tag_Ele_pt*(1-cos(event_met_pfphi-tag_Ele_phi))) < 45 '
p257
sg6
S'bin035_el_sc_eta_0p00To0p80_el_pt_12p00To14p00'
p258
sg8
(dp259
g10
(dp260
g12
F0.8
sg13
F0.0
ssg14
(dp261
g12
I14
sg13
I12
sssg16
S'; 0.000 < el_sc_eta < 0.800; 12.000 < el_pt < 14.000'
p262
sa(dp263
g4
S'tag_Ele_pt > 30 && abs(tag_sc_eta) < 2.17 && el_q*tag_Ele_q < 0 && el_pt > 10 && abs(el_sc_eta) < 2.5 && el_reliso03 < 0.08 && abs(el_dxy) < 0.01 && abs(el_dz) < 0.04 && el_3charge == 1 && el_passConversionVeto == 1 && el_dxysig < 4 && el_HNMVATight == 1 && el_sc_eta >= 0.800000 && el_sc_eta < 1.444200 && el_pt >= 12.000000 && el_pt < 14.000000 && tag_Ele_trigMVA > 0.92 && sqrt( 2*event_met_pfmet*tag_Ele_pt*(1-cos(event_met_pfphi-tag_Ele_phi))) < 45 '
p264
sg6
S'bin036_el_sc_eta_0p80To1p44_el_pt_12p00To14p00'
p265
sg8
(dp266
g10
(dp267
g12
F1.4442
sg13
F0.8
ssg14
(dp268
g12
I14
sg13
I12
sssg16
S'; 0.800 < el_sc_eta < 1.444; 12.000 < el_pt < 14.000'
p269
sa(dp270
g4
S'tag_Ele_pt > 30 && abs(tag_sc_eta) < 2.17 && el_q*tag_Ele_q < 0 && el_pt > 10 && abs(el_sc_eta) < 2.5 && el_reliso03 < 0.08 && abs(el_dxy) < 0.01 && abs(el_dz) < 0.04 && el_3charge == 1 && el_passConversionVeto == 1 && el_dxysig < 4 && el_HNMVATight == 1 && el_sc_eta >= 1.444200 && el_sc_eta < 1.566000 && el_pt >= 12.000000 && el_pt < 14.000000 && tag_Ele_trigMVA > 0.92 && sqrt( 2*event_met_pfmet*tag_Ele_pt*(1-cos(event_met_pfphi-tag_Ele_phi))) < 45 '
p271
sg6
S'bin037_el_sc_eta_1p44To1p57_el_pt_12p00To14p00'
p272
sg8
(dp273
g10
(dp274
g12
F1.566
sg13
F1.4442
ssg14
(dp275
g12
I14
sg13
I12
sssg16
S'; 1.444 < el_sc_eta < 1.566; 12.000 < el_pt < 14.000'
p276
sa(dp277
g4
S'tag_Ele_pt > 30 && abs(tag_sc_eta) < 2.17 && el_q*tag_Ele_q < 0 && el_pt > 10 && abs(el_sc_eta) < 2.5 && el_reliso03 < 0.08 && abs(el_dxy) < 0.01 && abs(el_dz) < 0.04 && el_3charge == 1 && el_passConversionVeto == 1 && el_dxysig < 4 && el_HNMVATight == 1 && el_sc_eta >= 1.566000 && el_sc_eta < 2.000000 && el_pt >= 12.000000 && el_pt < 14.000000 && tag_Ele_trigMVA > 0.92 && sqrt( 2*event_met_pfmet*tag_Ele_pt*(1-cos(event_met_pfphi-tag_Ele_phi))) < 45 '
p278
sg6
S'bin038_el_sc_eta_1p57To2p00_el_pt_12p00To14p00'
p279
sg8
(dp280
g10
(dp281
g12
F2.0
sg13
F1.566
ssg14
(dp282
g12
I14
sg13
I12
sssg16
S'; 1.566 < el_sc_eta < 2.000; 12.000 < el_pt < 14.000'
p283
sa(dp284
g4
S'tag_Ele_pt > 30 && abs(tag_sc_eta) < 2.17 && el_q*tag_Ele_q < 0 && el_pt > 10 && abs(el_sc_eta) < 2.5 && el_reliso03 < 0.08 && abs(el_dxy) < 0.01 && abs(el_dz) < 0.04 && el_3charge == 1 && el_passConversionVeto == 1 && el_dxysig < 4 && el_HNMVATight == 1 && el_sc_eta >= 2.000000 && el_sc_eta < 2.500000 && el_pt >= 12.000000 && el_pt < 14.000000 && tag_Ele_trigMVA > 0.92 && sqrt( 2*event_met_pfmet*tag_Ele_pt*(1-cos(event_met_pfphi-tag_Ele_phi))) < 45 '
p285
sg6
S'bin039_el_sc_eta_2p00To2p50_el_pt_12p00To14p00'
p286
sg8
(dp287
g10
(dp288
g12
F2.5
sg13
F2.0
ssg14
(dp289
g12
I14
sg13
I12
sssg16
S'; 2.000 < el_sc_eta < 2.500; 12.000 < el_pt < 14.000'
p290
sa(dp291
g4
S'tag_Ele_pt > 30 && abs(tag_sc_eta) < 2.17 && el_q*tag_Ele_q < 0 && el_pt > 10 && abs(el_sc_eta) < 2.5 && el_reliso03 < 0.08 && abs(el_dxy) < 0.01 && abs(el_dz) < 0.04 && el_3charge == 1 && el_passConversionVeto == 1 && el_dxysig < 4 && el_HNMVATight == 1 && el_sc_eta >= -2.500000 && el_sc_eta < -2.000000 && el_pt >= 14.000000 && el_pt < 17.000000 && tag_Ele_trigMVA > 0.92 && sqrt( 2*event_met_pfmet*tag_Ele_pt*(1-cos(event_met_pfphi-tag_Ele_phi))) < 45 '
p292
sg6
S'bin040_el_sc_eta_m2p50Tom2p00_el_pt_14p00To17p00'
p293
sg8
(dp294
g10
(dp295
g12
F-2.0
sg13
F-2.5
ssg14
(dp296
g12
I17
sg13
I14
sssg16
S'; -2.500 < el_sc_eta < -2.000; 14.000 < el_pt < 17.000'
p297
sa(dp298
g4
S'tag_Ele_pt > 30 && abs(tag_sc_eta) < 2.17 && el_q*tag_Ele_q < 0 && el_pt > 10 && abs(el_sc_eta) < 2.5 && el_reliso03 < 0.08 && abs(el_dxy) < 0.01 && abs(el_dz) < 0.04 && el_3charge == 1 && el_passConversionVeto == 1 && el_dxysig < 4 && el_HNMVATight == 1 && el_sc_eta >= -2.000000 && el_sc_eta < -1.566000 && el_pt >= 14.000000 && el_pt < 17.000000 && tag_Ele_trigMVA > 0.92 && sqrt( 2*event_met_pfmet*tag_Ele_pt*(1-cos(event_met_pfphi-tag_Ele_phi))) < 45 '
p299
sg6
S'bin041_el_sc_eta_m2p00Tom1p57_el_pt_14p00To17p00'
p300
sg8
(dp301
g10
(dp302
g12
F-1.566
sg13
F-2.0
ssg14
(dp303
g12
I17
sg13
I14
sssg16
S'; -2.000 < el_sc_eta < -1.566; 14.000 < el_pt < 17.000'
p304
sa(dp305
g4
S'tag_Ele_pt > 30 && abs(tag_sc_eta) < 2.17 && el_q*tag_Ele_q < 0 && el_pt > 10 && abs(el_sc_eta) < 2.5 && el_reliso03 < 0.08 && abs(el_dxy) < 0.01 && abs(el_dz) < 0.04 && el_3charge == 1 && el_passConversionVeto == 1 && el_dxysig < 4 && el_HNMVATight == 1 && el_sc_eta >= -1.566000 && el_sc_eta < -1.444200 && el_pt >= 14.000000 && el_pt < 17.000000 && tag_Ele_trigMVA > 0.92 && sqrt( 2*event_met_pfmet*tag_Ele_pt*(1-cos(event_met_pfphi-tag_Ele_phi))) < 45 '
p306
sg6
S'bin042_el_sc_eta_m1p57Tom1p44_el_pt_14p00To17p00'
p307
sg8
(dp308
g10
(dp309
g12
F-1.4442
sg13
F-1.566
ssg14
(dp310
g12
I17
sg13
I14
sssg16
S'; -1.566 < el_sc_eta < -1.444; 14.000 < el_pt < 17.000'
p311
sa(dp312
g4
S'tag_Ele_pt > 30 && abs(tag_sc_eta) < 2.17 && el_q*tag_Ele_q < 0 && el_pt > 10 && abs(el_sc_eta) < 2.5 && el_reliso03 < 0.08 && abs(el_dxy) < 0.01 && abs(el_dz) < 0.04 && el_3charge == 1 && el_passConversionVeto == 1 && el_dxysig < 4 && el_HNMVATight == 1 && el_sc_eta >= -1.444200 && el_sc_eta < -0.800000 && el_pt >= 14.000000 && el_pt < 17.000000 && tag_Ele_trigMVA > 0.92 && sqrt( 2*event_met_pfmet*tag_Ele_pt*(1-cos(event_met_pfphi-tag_Ele_phi))) < 45 '
p313
sg6
S'bin043_el_sc_eta_m1p44Tom0p80_el_pt_14p00To17p00'
p314
sg8
(dp315
g10
(dp316
g12
F-0.8
sg13
F-1.4442
ssg14
(dp317
g12
I17
sg13
I14
sssg16
S'; -1.444 < el_sc_eta < -0.800; 14.000 < el_pt < 17.000'
p318
sa(dp319
g4
S'tag_Ele_pt > 30 && abs(tag_sc_eta) < 2.17 && el_q*tag_Ele_q < 0 && el_pt > 10 && abs(el_sc_eta) < 2.5 && el_reliso03 < 0.08 && abs(el_dxy) < 0.01 && abs(el_dz) < 0.04 && el_3charge == 1 && el_passConversionVeto == 1 && el_dxysig < 4 && el_HNMVATight == 1 && el_sc_eta >= -0.800000 && el_sc_eta < 0.000000 && el_pt >= 14.000000 && el_pt < 17.000000 && tag_Ele_trigMVA > 0.92 && sqrt( 2*event_met_pfmet*tag_Ele_pt*(1-cos(event_met_pfphi-tag_Ele_phi))) < 45 '
p320
sg6
S'bin044_el_sc_eta_m0p80To0p00_el_pt_14p00To17p00'
p321
sg8
(dp322
g10
(dp323
g12
F0.0
sg13
F-0.8
ssg14
(dp324
g12
I17
sg13
I14
sssg16
S'; -0.800 < el_sc_eta < 0.000; 14.000 < el_pt < 17.000'
p325
sa(dp326
g4
S'tag_Ele_pt > 30 && abs(tag_sc_eta) < 2.17 && el_q*tag_Ele_q < 0 && el_pt > 10 && abs(el_sc_eta) < 2.5 && el_reliso03 < 0.08 && abs(el_dxy) < 0.01 && abs(el_dz) < 0.04 && el_3charge == 1 && el_passConversionVeto == 1 && el_dxysig < 4 && el_HNMVATight == 1 && el_sc_eta >= 0.000000 && el_sc_eta < 0.800000 && el_pt >= 14.000000 && el_pt < 17.000000 && tag_Ele_trigMVA > 0.92 && sqrt( 2*event_met_pfmet*tag_Ele_pt*(1-cos(event_met_pfphi-tag_Ele_phi))) < 45 '
p327
sg6
S'bin045_el_sc_eta_0p00To0p80_el_pt_14p00To17p00'
p328
sg8
(dp329
g10
(dp330
g12
F0.8
sg13
F0.0
ssg14
(dp331
g12
I17
sg13
I14
sssg16
S'; 0.000 < el_sc_eta < 0.800; 14.000 < el_pt < 17.000'
p332
sa(dp333
g4
S'tag_Ele_pt > 30 && abs(tag_sc_eta) < 2.17 && el_q*tag_Ele_q < 0 && el_pt > 10 && abs(el_sc_eta) < 2.5 && el_reliso03 < 0.08 && abs(el_dxy) < 0.01 && abs(el_dz) < 0.04 && el_3charge == 1 && el_passConversionVeto == 1 && el_dxysig < 4 && el_HNMVATight == 1 && el_sc_eta >= 0.800000 && el_sc_eta < 1.444200 && el_pt >= 14.000000 && el_pt < 17.000000 && tag_Ele_trigMVA > 0.92 && sqrt( 2*event_met_pfmet*tag_Ele_pt*(1-cos(event_met_pfphi-tag_Ele_phi))) < 45 '
p334
sg6
S'bin046_el_sc_eta_0p80To1p44_el_pt_14p00To17p00'
p335
sg8
(dp336
g10
(dp337
g12
F1.4442
sg13
F0.8
ssg14
(dp338
g12
I17
sg13
I14
sssg16
S'; 0.800 < el_sc_eta < 1.444; 14.000 < el_pt < 17.000'
p339
sa(dp340
g4
S'tag_Ele_pt > 30 && abs(tag_sc_eta) < 2.17 && el_q*tag_Ele_q < 0 && el_pt > 10 && abs(el_sc_eta) < 2.5 && el_reliso03 < 0.08 && abs(el_dxy) < 0.01 && abs(el_dz) < 0.04 && el_3charge == 1 && el_passConversionVeto == 1 && el_dxysig < 4 && el_HNMVATight == 1 && el_sc_eta >= 1.444200 && el_sc_eta < 1.566000 && el_pt >= 14.000000 && el_pt < 17.000000 && tag_Ele_trigMVA > 0.92 && sqrt( 2*event_met_pfmet*tag_Ele_pt*(1-cos(event_met_pfphi-tag_Ele_phi))) < 45 '
p341
sg6
S'bin047_el_sc_eta_1p44To1p57_el_pt_14p00To17p00'
p342
sg8
(dp343
g10
(dp344
g12
F1.566
sg13
F1.4442
ssg14
(dp345
g12
I17
sg13
I14
sssg16
S'; 1.444 < el_sc_eta < 1.566; 14.000 < el_pt < 17.000'
p346
sa(dp347
g4
S'tag_Ele_pt > 30 && abs(tag_sc_eta) < 2.17 && el_q*tag_Ele_q < 0 && el_pt > 10 && abs(el_sc_eta) < 2.5 && el_reliso03 < 0.08 && abs(el_dxy) < 0.01 && abs(el_dz) < 0.04 && el_3charge == 1 && el_passConversionVeto == 1 && el_dxysig < 4 && el_HNMVATight == 1 && el_sc_eta >= 1.566000 && el_sc_eta < 2.000000 && el_pt >= 14.000000 && el_pt < 17.000000 && tag_Ele_trigMVA > 0.92 && sqrt( 2*event_met_pfmet*tag_Ele_pt*(1-cos(event_met_pfphi-tag_Ele_phi))) < 45 '
p348
sg6
S'bin048_el_sc_eta_1p57To2p00_el_pt_14p00To17p00'
p349
sg8
(dp350
g10
(dp351
g12
F2.0
sg13
F1.566
ssg14
(dp352
g12
I17
sg13
I14
sssg16
S'; 1.566 < el_sc_eta < 2.000; 14.000 < el_pt < 17.000'
p353
sa(dp354
g4
S'tag_Ele_pt > 30 && abs(tag_sc_eta) < 2.17 && el_q*tag_Ele_q < 0 && el_pt > 10 && abs(el_sc_eta) < 2.5 && el_reliso03 < 0.08 && abs(el_dxy) < 0.01 && abs(el_dz) < 0.04 && el_3charge == 1 && el_passConversionVeto == 1 && el_dxysig < 4 && el_HNMVATight == 1 && el_sc_eta >= 2.000000 && el_sc_eta < 2.500000 && el_pt >= 14.000000 && el_pt < 17.000000 && tag_Ele_trigMVA > 0.92 && sqrt( 2*event_met_pfmet*tag_Ele_pt*(1-cos(event_met_pfphi-tag_Ele_phi))) < 45 '
p355
sg6
S'bin049_el_sc_eta_2p00To2p50_el_pt_14p00To17p00'
p356
sg8
(dp357
g10
(dp358
g12
F2.5
sg13
F2.0
ssg14
(dp359
g12
I17
sg13
I14
sssg16
S'; 2.000 < el_sc_eta < 2.500; 14.000 < el_pt < 17.000'
p360
sa(dp361
g4
S'tag_Ele_pt > 30 && abs(tag_sc_eta) < 2.17 && el_q*tag_Ele_q < 0 && el_pt > 10 && abs(el_sc_eta) < 2.5 && el_reliso03 < 0.08 && abs(el_dxy) < 0.01 && abs(el_dz) < 0.04 && el_3charge == 1 && el_passConversionVeto == 1 && el_dxysig < 4 && el_HNMVATight == 1 && el_sc_eta >= -2.500000 && el_sc_eta < -2.000000 && el_pt >= 17.000000 && el_pt < 20.000000 && tag_Ele_trigMVA > 0.92 && sqrt( 2*event_met_pfmet*tag_Ele_pt*(1-cos(event_met_pfphi-tag_Ele_phi))) < 45 '
p362
sg6
S'bin050_el_sc_eta_m2p50Tom2p00_el_pt_17p00To20p00'
p363
sg8
(dp364
g10
(dp365
g12
F-2.0
sg13
F-2.5
ssg14
(dp366
g12
I20
sg13
I17
sssg16
S'; -2.500 < el_sc_eta < -2.000; 17.000 < el_pt < 20.000'
p367
sa(dp368
g4
S'tag_Ele_pt > 30 && abs(tag_sc_eta) < 2.17 && el_q*tag_Ele_q < 0 && el_pt > 10 && abs(el_sc_eta) < 2.5 && el_reliso03 < 0.08 && abs(el_dxy) < 0.01 && abs(el_dz) < 0.04 && el_3charge == 1 && el_passConversionVeto == 1 && el_dxysig < 4 && el_HNMVATight == 1 && el_sc_eta >= -2.000000 && el_sc_eta < -1.566000 && el_pt >= 17.000000 && el_pt < 20.000000 && tag_Ele_trigMVA > 0.92 && sqrt( 2*event_met_pfmet*tag_Ele_pt*(1-cos(event_met_pfphi-tag_Ele_phi))) < 45 '
p369
sg6
S'bin051_el_sc_eta_m2p00Tom1p57_el_pt_17p00To20p00'
p370
sg8
(dp371
g10
(dp372
g12
F-1.566
sg13
F-2.0
ssg14
(dp373
g12
I20
sg13
I17
sssg16
S'; -2.000 < el_sc_eta < -1.566; 17.000 < el_pt < 20.000'
p374
sa(dp375
g4
S'tag_Ele_pt > 30 && abs(tag_sc_eta) < 2.17 && el_q*tag_Ele_q < 0 && el_pt > 10 && abs(el_sc_eta) < 2.5 && el_reliso03 < 0.08 && abs(el_dxy) < 0.01 && abs(el_dz) < 0.04 && el_3charge == 1 && el_passConversionVeto == 1 && el_dxysig < 4 && el_HNMVATight == 1 && el_sc_eta >= -1.566000 && el_sc_eta < -1.444200 && el_pt >= 17.000000 && el_pt < 20.000000 && tag_Ele_trigMVA > 0.92 && sqrt( 2*event_met_pfmet*tag_Ele_pt*(1-cos(event_met_pfphi-tag_Ele_phi))) < 45 '
p376
sg6
S'bin052_el_sc_eta_m1p57Tom1p44_el_pt_17p00To20p00'
p377
sg8
(dp378
g10
(dp379
g12
F-1.4442
sg13
F-1.566
ssg14
(dp380
g12
I20
sg13
I17
sssg16
S'; -1.566 < el_sc_eta < -1.444; 17.000 < el_pt < 20.000'
p381
sa(dp382
g4
S'tag_Ele_pt > 30 && abs(tag_sc_eta) < 2.17 && el_q*tag_Ele_q < 0 && el_pt > 10 && abs(el_sc_eta) < 2.5 && el_reliso03 < 0.08 && abs(el_dxy) < 0.01 && abs(el_dz) < 0.04 && el_3charge == 1 && el_passConversionVeto == 1 && el_dxysig < 4 && el_HNMVATight == 1 && el_sc_eta >= -1.444200 && el_sc_eta < -0.800000 && el_pt >= 17.000000 && el_pt < 20.000000 && tag_Ele_trigMVA > 0.92 && sqrt( 2*event_met_pfmet*tag_Ele_pt*(1-cos(event_met_pfphi-tag_Ele_phi))) < 45 '
p383
sg6
S'bin053_el_sc_eta_m1p44Tom0p80_el_pt_17p00To20p00'
p384
sg8
(dp385
g10
(dp386
g12
F-0.8
sg13
F-1.4442
ssg14
(dp387
g12
I20
sg13
I17
sssg16
S'; -1.444 < el_sc_eta < -0.800; 17.000 < el_pt < 20.000'
p388
sa(dp389
g4
S'tag_Ele_pt > 30 && abs(tag_sc_eta) < 2.17 && el_q*tag_Ele_q < 0 && el_pt > 10 && abs(el_sc_eta) < 2.5 && el_reliso03 < 0.08 && abs(el_dxy) < 0.01 && abs(el_dz) < 0.04 && el_3charge == 1 && el_passConversionVeto == 1 && el_dxysig < 4 && el_HNMVATight == 1 && el_sc_eta >= -0.800000 && el_sc_eta < 0.000000 && el_pt >= 17.000000 && el_pt < 20.000000 && tag_Ele_trigMVA > 0.92 && sqrt( 2*event_met_pfmet*tag_Ele_pt*(1-cos(event_met_pfphi-tag_Ele_phi))) < 45 '
p390
sg6
S'bin054_el_sc_eta_m0p80To0p00_el_pt_17p00To20p00'
p391
sg8
(dp392
g10
(dp393
g12
F0.0
sg13
F-0.8
ssg14
(dp394
g12
I20
sg13
I17
sssg16
S'; -0.800 < el_sc_eta < 0.000; 17.000 < el_pt < 20.000'
p395
sa(dp396
g4
S'tag_Ele_pt > 30 && abs(tag_sc_eta) < 2.17 && el_q*tag_Ele_q < 0 && el_pt > 10 && abs(el_sc_eta) < 2.5 && el_reliso03 < 0.08 && abs(el_dxy) < 0.01 && abs(el_dz) < 0.04 && el_3charge == 1 && el_passConversionVeto == 1 && el_dxysig < 4 && el_HNMVATight == 1 && el_sc_eta >= 0.000000 && el_sc_eta < 0.800000 && el_pt >= 17.000000 && el_pt < 20.000000 && tag_Ele_trigMVA > 0.92 && sqrt( 2*event_met_pfmet*tag_Ele_pt*(1-cos(event_met_pfphi-tag_Ele_phi))) < 45 '
p397
sg6
S'bin055_el_sc_eta_0p00To0p80_el_pt_17p00To20p00'
p398
sg8
(dp399
g10
(dp400
g12
F0.8
sg13
F0.0
ssg14
(dp401
g12
I20
sg13
I17
sssg16
S'; 0.000 < el_sc_eta < 0.800; 17.000 < el_pt < 20.000'
p402
sa(dp403
g4
S'tag_Ele_pt > 30 && abs(tag_sc_eta) < 2.17 && el_q*tag_Ele_q < 0 && el_pt > 10 && abs(el_sc_eta) < 2.5 && el_reliso03 < 0.08 && abs(el_dxy) < 0.01 && abs(el_dz) < 0.04 && el_3charge == 1 && el_passConversionVeto == 1 && el_dxysig < 4 && el_HNMVATight == 1 && el_sc_eta >= 0.800000 && el_sc_eta < 1.444200 && el_pt >= 17.000000 && el_pt < 20.000000 && tag_Ele_trigMVA > 0.92 && sqrt( 2*event_met_pfmet*tag_Ele_pt*(1-cos(event_met_pfphi-tag_Ele_phi))) < 45 '
p404
sg6
S'bin056_el_sc_eta_0p80To1p44_el_pt_17p00To20p00'
p405
sg8
(dp406
g10
(dp407
g12
F1.4442
sg13
F0.8
ssg14
(dp408
g12
I20
sg13
I17
sssg16
S'; 0.800 < el_sc_eta < 1.444; 17.000 < el_pt < 20.000'
p409
sa(dp410
g4
S'tag_Ele_pt > 30 && abs(tag_sc_eta) < 2.17 && el_q*tag_Ele_q < 0 && el_pt > 10 && abs(el_sc_eta) < 2.5 && el_reliso03 < 0.08 && abs(el_dxy) < 0.01 && abs(el_dz) < 0.04 && el_3charge == 1 && el_passConversionVeto == 1 && el_dxysig < 4 && el_HNMVATight == 1 && el_sc_eta >= 1.444200 && el_sc_eta < 1.566000 && el_pt >= 17.000000 && el_pt < 20.000000 && tag_Ele_trigMVA > 0.92 && sqrt( 2*event_met_pfmet*tag_Ele_pt*(1-cos(event_met_pfphi-tag_Ele_phi))) < 45 '
p411
sg6
S'bin057_el_sc_eta_1p44To1p57_el_pt_17p00To20p00'
p412
sg8
(dp413
g10
(dp414
g12
F1.566
sg13
F1.4442
ssg14
(dp415
g12
I20
sg13
I17
sssg16
S'; 1.444 < el_sc_eta < 1.566; 17.000 < el_pt < 20.000'
p416
sa(dp417
g4
S'tag_Ele_pt > 30 && abs(tag_sc_eta) < 2.17 && el_q*tag_Ele_q < 0 && el_pt > 10 && abs(el_sc_eta) < 2.5 && el_reliso03 < 0.08 && abs(el_dxy) < 0.01 && abs(el_dz) < 0.04 && el_3charge == 1 && el_passConversionVeto == 1 && el_dxysig < 4 && el_HNMVATight == 1 && el_sc_eta >= 1.566000 && el_sc_eta < 2.000000 && el_pt >= 17.000000 && el_pt < 20.000000 && tag_Ele_trigMVA > 0.92 && sqrt( 2*event_met_pfmet*tag_Ele_pt*(1-cos(event_met_pfphi-tag_Ele_phi))) < 45 '
p418
sg6
S'bin058_el_sc_eta_1p57To2p00_el_pt_17p00To20p00'
p419
sg8
(dp420
g10
(dp421
g12
F2.0
sg13
F1.566
ssg14
(dp422
g12
I20
sg13
I17
sssg16
S'; 1.566 < el_sc_eta < 2.000; 17.000 < el_pt < 20.000'
p423
sa(dp424
g4
S'tag_Ele_pt > 30 && abs(tag_sc_eta) < 2.17 && el_q*tag_Ele_q < 0 && el_pt > 10 && abs(el_sc_eta) < 2.5 && el_reliso03 < 0.08 && abs(el_dxy) < 0.01 && abs(el_dz) < 0.04 && el_3charge == 1 && el_passConversionVeto == 1 && el_dxysig < 4 && el_HNMVATight == 1 && el_sc_eta >= 2.000000 && el_sc_eta < 2.500000 && el_pt >= 17.000000 && el_pt < 20.000000 && tag_Ele_trigMVA > 0.92 && sqrt( 2*event_met_pfmet*tag_Ele_pt*(1-cos(event_met_pfphi-tag_Ele_phi))) < 45 '
p425
sg6
S'bin059_el_sc_eta_2p00To2p50_el_pt_17p00To20p00'
p426
sg8
(dp427
g10
(dp428
g12
F2.5
sg13
F2.0
ssg14
(dp429
g12
I20
sg13
I17
sssg16
S'; 2.000 < el_sc_eta < 2.500; 17.000 < el_pt < 20.000'
p430
sa(dp431
g4
S'tag_Ele_pt > 30 && abs(tag_sc_eta) < 2.17 && el_q*tag_Ele_q < 0 && el_pt > 10 && abs(el_sc_eta) < 2.5 && el_reliso03 < 0.08 && abs(el_dxy) < 0.01 && abs(el_dz) < 0.04 && el_3charge == 1 && el_passConversionVeto == 1 && el_dxysig < 4 && el_HNMVATight == 1 && el_sc_eta >= -2.500000 && el_sc_eta < -2.000000 && el_pt >= 20.000000 && el_pt < 30.000000'
p432
sg6
S'bin060_el_sc_eta_m2p50Tom2p00_el_pt_20p00To30p00'
p433
sg8
(dp434
g10
(dp435
g12
F-2.0
sg13
F-2.5
ssg14
(dp436
g12
I30
sg13
I20
sssg16
S'; -2.500 < el_sc_eta < -2.000; 20.000 < el_pt < 30.000'
p437
sa(dp438
g4
S'tag_Ele_pt > 30 && abs(tag_sc_eta) < 2.17 && el_q*tag_Ele_q < 0 && el_pt > 10 && abs(el_sc_eta) < 2.5 && el_reliso03 < 0.08 && abs(el_dxy) < 0.01 && abs(el_dz) < 0.04 && el_3charge == 1 && el_passConversionVeto == 1 && el_dxysig < 4 && el_HNMVATight == 1 && el_sc_eta >= -2.000000 && el_sc_eta < -1.566000 && el_pt >= 20.000000 && el_pt < 30.000000'
p439
sg6
S'bin061_el_sc_eta_m2p00Tom1p57_el_pt_20p00To30p00'
p440
sg8
(dp441
g10
(dp442
g12
F-1.566
sg13
F-2.0
ssg14
(dp443
g12
I30
sg13
I20
sssg16
S'; -2.000 < el_sc_eta < -1.566; 20.000 < el_pt < 30.000'
p444
sa(dp445
g4
S'tag_Ele_pt > 30 && abs(tag_sc_eta) < 2.17 && el_q*tag_Ele_q < 0 && el_pt > 10 && abs(el_sc_eta) < 2.5 && el_reliso03 < 0.08 && abs(el_dxy) < 0.01 && abs(el_dz) < 0.04 && el_3charge == 1 && el_passConversionVeto == 1 && el_dxysig < 4 && el_HNMVATight == 1 && el_sc_eta >= -1.566000 && el_sc_eta < -1.444200 && el_pt >= 20.000000 && el_pt < 30.000000'
p446
sg6
S'bin062_el_sc_eta_m1p57Tom1p44_el_pt_20p00To30p00'
p447
sg8
(dp448
g10
(dp449
g12
F-1.4442
sg13
F-1.566
ssg14
(dp450
g12
I30
sg13
I20
sssg16
S'; -1.566 < el_sc_eta < -1.444; 20.000 < el_pt < 30.000'
p451
sa(dp452
g4
S'tag_Ele_pt > 30 && abs(tag_sc_eta) < 2.17 && el_q*tag_Ele_q < 0 && el_pt > 10 && abs(el_sc_eta) < 2.5 && el_reliso03 < 0.08 && abs(el_dxy) < 0.01 && abs(el_dz) < 0.04 && el_3charge == 1 && el_passConversionVeto == 1 && el_dxysig < 4 && el_HNMVATight == 1 && el_sc_eta >= -1.444200 && el_sc_eta < -0.800000 && el_pt >= 20.000000 && el_pt < 30.000000'
p453
sg6
S'bin063_el_sc_eta_m1p44Tom0p80_el_pt_20p00To30p00'
p454
sg8
(dp455
g10
(dp456
g12
F-0.8
sg13
F-1.4442
ssg14
(dp457
g12
I30
sg13
I20
sssg16
S'; -1.444 < el_sc_eta < -0.800; 20.000 < el_pt < 30.000'
p458
sa(dp459
g4
S'tag_Ele_pt > 30 && abs(tag_sc_eta) < 2.17 && el_q*tag_Ele_q < 0 && el_pt > 10 && abs(el_sc_eta) < 2.5 && el_reliso03 < 0.08 && abs(el_dxy) < 0.01 && abs(el_dz) < 0.04 && el_3charge == 1 && el_passConversionVeto == 1 && el_dxysig < 4 && el_HNMVATight == 1 && el_sc_eta >= -0.800000 && el_sc_eta < 0.000000 && el_pt >= 20.000000 && el_pt < 30.000000'
p460
sg6
S'bin064_el_sc_eta_m0p80To0p00_el_pt_20p00To30p00'
p461
sg8
(dp462
g10
(dp463
g12
F0.0
sg13
F-0.8
ssg14
(dp464
g12
I30
sg13
I20
sssg16
S'; -0.800 < el_sc_eta < 0.000; 20.000 < el_pt < 30.000'
p465
sa(dp466
g4
S'tag_Ele_pt > 30 && abs(tag_sc_eta) < 2.17 && el_q*tag_Ele_q < 0 && el_pt > 10 && abs(el_sc_eta) < 2.5 && el_reliso03 < 0.08 && abs(el_dxy) < 0.01 && abs(el_dz) < 0.04 && el_3charge == 1 && el_passConversionVeto == 1 && el_dxysig < 4 && el_HNMVATight == 1 && el_sc_eta >= 0.000000 && el_sc_eta < 0.800000 && el_pt >= 20.000000 && el_pt < 30.000000'
p467
sg6
S'bin065_el_sc_eta_0p00To0p80_el_pt_20p00To30p00'
p468
sg8
(dp469
g10
(dp470
g12
F0.8
sg13
F0.0
ssg14
(dp471
g12
I30
sg13
I20
sssg16
S'; 0.000 < el_sc_eta < 0.800; 20.000 < el_pt < 30.000'
p472
sa(dp473
g4
S'tag_Ele_pt > 30 && abs(tag_sc_eta) < 2.17 && el_q*tag_Ele_q < 0 && el_pt > 10 && abs(el_sc_eta) < 2.5 && el_reliso03 < 0.08 && abs(el_dxy) < 0.01 && abs(el_dz) < 0.04 && el_3charge == 1 && el_passConversionVeto == 1 && el_dxysig < 4 && el_HNMVATight == 1 && el_sc_eta >= 0.800000 && el_sc_eta < 1.444200 && el_pt >= 20.000000 && el_pt < 30.000000'
p474
sg6
S'bin066_el_sc_eta_0p80To1p44_el_pt_20p00To30p00'
p475
sg8
(dp476
g10
(dp477
g12
F1.4442
sg13
F0.8
ssg14
(dp478
g12
I30
sg13
I20
sssg16
S'; 0.800 < el_sc_eta < 1.444; 20.000 < el_pt < 30.000'
p479
sa(dp480
g4
S'tag_Ele_pt > 30 && abs(tag_sc_eta) < 2.17 && el_q*tag_Ele_q < 0 && el_pt > 10 && abs(el_sc_eta) < 2.5 && el_reliso03 < 0.08 && abs(el_dxy) < 0.01 && abs(el_dz) < 0.04 && el_3charge == 1 && el_passConversionVeto == 1 && el_dxysig < 4 && el_HNMVATight == 1 && el_sc_eta >= 1.444200 && el_sc_eta < 1.566000 && el_pt >= 20.000000 && el_pt < 30.000000'
p481
sg6
S'bin067_el_sc_eta_1p44To1p57_el_pt_20p00To30p00'
p482
sg8
(dp483
g10
(dp484
g12
F1.566
sg13
F1.4442
ssg14
(dp485
g12
I30
sg13
I20
sssg16
S'; 1.444 < el_sc_eta < 1.566; 20.000 < el_pt < 30.000'
p486
sa(dp487
g4
S'tag_Ele_pt > 30 && abs(tag_sc_eta) < 2.17 && el_q*tag_Ele_q < 0 && el_pt > 10 && abs(el_sc_eta) < 2.5 && el_reliso03 < 0.08 && abs(el_dxy) < 0.01 && abs(el_dz) < 0.04 && el_3charge == 1 && el_passConversionVeto == 1 && el_dxysig < 4 && el_HNMVATight == 1 && el_sc_eta >= 1.566000 && el_sc_eta < 2.000000 && el_pt >= 20.000000 && el_pt < 30.000000'
p488
sg6
S'bin068_el_sc_eta_1p57To2p00_el_pt_20p00To30p00'
p489
sg8
(dp490
g10
(dp491
g12
F2.0
sg13
F1.566
ssg14
(dp492
g12
I30
sg13
I20
sssg16
S'; 1.566 < el_sc_eta < 2.000; 20.000 < el_pt < 30.000'
p493
sa(dp494
g4
S'tag_Ele_pt > 30 && abs(tag_sc_eta) < 2.17 && el_q*tag_Ele_q < 0 && el_pt > 10 && abs(el_sc_eta) < 2.5 && el_reliso03 < 0.08 && abs(el_dxy) < 0.01 && abs(el_dz) < 0.04 && el_3charge == 1 && el_passConversionVeto == 1 && el_dxysig < 4 && el_HNMVATight == 1 && el_sc_eta >= 2.000000 && el_sc_eta < 2.500000 && el_pt >= 20.000000 && el_pt < 30.000000'
p495
sg6
S'bin069_el_sc_eta_2p00To2p50_el_pt_20p00To30p00'
p496
sg8
(dp497
g10
(dp498
g12
F2.5
sg13
F2.0
ssg14
(dp499
g12
I30
sg13
I20
sssg16
S'; 2.000 < el_sc_eta < 2.500; 20.000 < el_pt < 30.000'
p500
sa(dp501
g4
S'tag_Ele_pt > 30 && abs(tag_sc_eta) < 2.17 && el_q*tag_Ele_q < 0 && el_pt > 10 && abs(el_sc_eta) < 2.5 && el_reliso03 < 0.08 && abs(el_dxy) < 0.01 && abs(el_dz) < 0.04 && el_3charge == 1 && el_passConversionVeto == 1 && el_dxysig < 4 && el_HNMVATight == 1 && el_sc_eta >= -2.500000 && el_sc_eta < -2.000000 && el_pt >= 30.000000 && el_pt < 45.000000'
p502
sg6
S'bin070_el_sc_eta_m2p50Tom2p00_el_pt_30p00To45p00'
p503
sg8
(dp504
g10
(dp505
g12
F-2.0
sg13
F-2.5
ssg14
(dp506
g12
I45
sg13
I30
sssg16
S'; -2.500 < el_sc_eta < -2.000; 30.000 < el_pt < 45.000'
p507
sa(dp508
g4
S'tag_Ele_pt > 30 && abs(tag_sc_eta) < 2.17 && el_q*tag_Ele_q < 0 && el_pt > 10 && abs(el_sc_eta) < 2.5 && el_reliso03 < 0.08 && abs(el_dxy) < 0.01 && abs(el_dz) < 0.04 && el_3charge == 1 && el_passConversionVeto == 1 && el_dxysig < 4 && el_HNMVATight == 1 && el_sc_eta >= -2.000000 && el_sc_eta < -1.566000 && el_pt >= 30.000000 && el_pt < 45.000000'
p509
sg6
S'bin071_el_sc_eta_m2p00Tom1p57_el_pt_30p00To45p00'
p510
sg8
(dp511
g10
(dp512
g12
F-1.566
sg13
F-2.0
ssg14
(dp513
g12
I45
sg13
I30
sssg16
S'; -2.000 < el_sc_eta < -1.566; 30.000 < el_pt < 45.000'
p514
sa(dp515
g4
S'tag_Ele_pt > 30 && abs(tag_sc_eta) < 2.17 && el_q*tag_Ele_q < 0 && el_pt > 10 && abs(el_sc_eta) < 2.5 && el_reliso03 < 0.08 && abs(el_dxy) < 0.01 && abs(el_dz) < 0.04 && el_3charge == 1 && el_passConversionVeto == 1 && el_dxysig < 4 && el_HNMVATight == 1 && el_sc_eta >= -1.566000 && el_sc_eta < -1.444200 && el_pt >= 30.000000 && el_pt < 45.000000'
p516
sg6
S'bin072_el_sc_eta_m1p57Tom1p44_el_pt_30p00To45p00'
p517
sg8
(dp518
g10
(dp519
g12
F-1.4442
sg13
F-1.566
ssg14
(dp520
g12
I45
sg13
I30
sssg16
S'; -1.566 < el_sc_eta < -1.444; 30.000 < el_pt < 45.000'
p521
sa(dp522
g4
S'tag_Ele_pt > 30 && abs(tag_sc_eta) < 2.17 && el_q*tag_Ele_q < 0 && el_pt > 10 && abs(el_sc_eta) < 2.5 && el_reliso03 < 0.08 && abs(el_dxy) < 0.01 && abs(el_dz) < 0.04 && el_3charge == 1 && el_passConversionVeto == 1 && el_dxysig < 4 && el_HNMVATight == 1 && el_sc_eta >= -1.444200 && el_sc_eta < -0.800000 && el_pt >= 30.000000 && el_pt < 45.000000'
p523
sg6
S'bin073_el_sc_eta_m1p44Tom0p80_el_pt_30p00To45p00'
p524
sg8
(dp525
g10
(dp526
g12
F-0.8
sg13
F-1.4442
ssg14
(dp527
g12
I45
sg13
I30
sssg16
S'; -1.444 < el_sc_eta < -0.800; 30.000 < el_pt < 45.000'
p528
sa(dp529
g4
S'tag_Ele_pt > 30 && abs(tag_sc_eta) < 2.17 && el_q*tag_Ele_q < 0 && el_pt > 10 && abs(el_sc_eta) < 2.5 && el_reliso03 < 0.08 && abs(el_dxy) < 0.01 && abs(el_dz) < 0.04 && el_3charge == 1 && el_passConversionVeto == 1 && el_dxysig < 4 && el_HNMVATight == 1 && el_sc_eta >= -0.800000 && el_sc_eta < 0.000000 && el_pt >= 30.000000 && el_pt < 45.000000'
p530
sg6
S'bin074_el_sc_eta_m0p80To0p00_el_pt_30p00To45p00'
p531
sg8
(dp532
g10
(dp533
g12
F0.0
sg13
F-0.8
ssg14
(dp534
g12
I45
sg13
I30
sssg16
S'; -0.800 < el_sc_eta < 0.000; 30.000 < el_pt < 45.000'
p535
sa(dp536
g4
S'tag_Ele_pt > 30 && abs(tag_sc_eta) < 2.17 && el_q*tag_Ele_q < 0 && el_pt > 10 && abs(el_sc_eta) < 2.5 && el_reliso03 < 0.08 && abs(el_dxy) < 0.01 && abs(el_dz) < 0.04 && el_3charge == 1 && el_passConversionVeto == 1 && el_dxysig < 4 && el_HNMVATight == 1 && el_sc_eta >= 0.000000 && el_sc_eta < 0.800000 && el_pt >= 30.000000 && el_pt < 45.000000'
p537
sg6
S'bin075_el_sc_eta_0p00To0p80_el_pt_30p00To45p00'
p538
sg8
(dp539
g10
(dp540
g12
F0.8
sg13
F0.0
ssg14
(dp541
g12
I45
sg13
I30
sssg16
S'; 0.000 < el_sc_eta < 0.800; 30.000 < el_pt < 45.000'
p542
sa(dp543
g4
S'tag_Ele_pt > 30 && abs(tag_sc_eta) < 2.17 && el_q*tag_Ele_q < 0 && el_pt > 10 && abs(el_sc_eta) < 2.5 && el_reliso03 < 0.08 && abs(el_dxy) < 0.01 && abs(el_dz) < 0.04 && el_3charge == 1 && el_passConversionVeto == 1 && el_dxysig < 4 && el_HNMVATight == 1 && el_sc_eta >= 0.800000 && el_sc_eta < 1.444200 && el_pt >= 30.000000 && el_pt < 45.000000'
p544
sg6
S'bin076_el_sc_eta_0p80To1p44_el_pt_30p00To45p00'
p545
sg8
(dp546
g10
(dp547
g12
F1.4442
sg13
F0.8
ssg14
(dp548
g12
I45
sg13
I30
sssg16
S'; 0.800 < el_sc_eta < 1.444; 30.000 < el_pt < 45.000'
p549
sa(dp550
g4
S'tag_Ele_pt > 30 && abs(tag_sc_eta) < 2.17 && el_q*tag_Ele_q < 0 && el_pt > 10 && abs(el_sc_eta) < 2.5 && el_reliso03 < 0.08 && abs(el_dxy) < 0.01 && abs(el_dz) < 0.04 && el_3charge == 1 && el_passConversionVeto == 1 && el_dxysig < 4 && el_HNMVATight == 1 && el_sc_eta >= 1.444200 && el_sc_eta < 1.566000 && el_pt >= 30.000000 && el_pt < 45.000000'
p551
sg6
S'bin077_el_sc_eta_1p44To1p57_el_pt_30p00To45p00'
p552
sg8
(dp553
g10
(dp554
g12
F1.566
sg13
F1.4442
ssg14
(dp555
g12
I45
sg13
I30
sssg16
S'; 1.444 < el_sc_eta < 1.566; 30.000 < el_pt < 45.000'
p556
sa(dp557
g4
S'tag_Ele_pt > 30 && abs(tag_sc_eta) < 2.17 && el_q*tag_Ele_q < 0 && el_pt > 10 && abs(el_sc_eta) < 2.5 && el_reliso03 < 0.08 && abs(el_dxy) < 0.01 && abs(el_dz) < 0.04 && el_3charge == 1 && el_passConversionVeto == 1 && el_dxysig < 4 && el_HNMVATight == 1 && el_sc_eta >= 1.566000 && el_sc_eta < 2.000000 && el_pt >= 30.000000 && el_pt < 45.000000'
p558
sg6
S'bin078_el_sc_eta_1p57To2p00_el_pt_30p00To45p00'
p559
sg8
(dp560
g10
(dp561
g12
F2.0
sg13
F1.566
ssg14
(dp562
g12
I45
sg13
I30
sssg16
S'; 1.566 < el_sc_eta < 2.000; 30.000 < el_pt < 45.000'
p563
sa(dp564
g4
S'tag_Ele_pt > 30 && abs(tag_sc_eta) < 2.17 && el_q*tag_Ele_q < 0 && el_pt > 10 && abs(el_sc_eta) < 2.5 && el_reliso03 < 0.08 && abs(el_dxy) < 0.01 && abs(el_dz) < 0.04 && el_3charge == 1 && el_passConversionVeto == 1 && el_dxysig < 4 && el_HNMVATight == 1 && el_sc_eta >= 2.000000 && el_sc_eta < 2.500000 && el_pt >= 30.000000 && el_pt < 45.000000'
p565
sg6
S'bin079_el_sc_eta_2p00To2p50_el_pt_30p00To45p00'
p566
sg8
(dp567
g10
(dp568
g12
F2.5
sg13
F2.0
ssg14
(dp569
g12
I45
sg13
I30
sssg16
S'; 2.000 < el_sc_eta < 2.500; 30.000 < el_pt < 45.000'
p570
sa(dp571
g4
S'tag_Ele_pt > 30 && abs(tag_sc_eta) < 2.17 && el_q*tag_Ele_q < 0 && el_pt > 10 && abs(el_sc_eta) < 2.5 && el_reliso03 < 0.08 && abs(el_dxy) < 0.01 && abs(el_dz) < 0.04 && el_3charge == 1 && el_passConversionVeto == 1 && el_dxysig < 4 && el_HNMVATight == 1 && el_sc_eta >= -2.500000 && el_sc_eta < -2.000000 && el_pt >= 45.000000 && el_pt < 60.000000'
p572
sg6
S'bin080_el_sc_eta_m2p50Tom2p00_el_pt_45p00To60p00'
p573
sg8
(dp574
g10
(dp575
g12
F-2.0
sg13
F-2.5
ssg14
(dp576
g12
I60
sg13
I45
sssg16
S'; -2.500 < el_sc_eta < -2.000; 45.000 < el_pt < 60.000'
p577
sa(dp578
g4
S'tag_Ele_pt > 30 && abs(tag_sc_eta) < 2.17 && el_q*tag_Ele_q < 0 && el_pt > 10 && abs(el_sc_eta) < 2.5 && el_reliso03 < 0.08 && abs(el_dxy) < 0.01 && abs(el_dz) < 0.04 && el_3charge == 1 && el_passConversionVeto == 1 && el_dxysig < 4 && el_HNMVATight == 1 && el_sc_eta >= -2.000000 && el_sc_eta < -1.566000 && el_pt >= 45.000000 && el_pt < 60.000000'
p579
sg6
S'bin081_el_sc_eta_m2p00Tom1p57_el_pt_45p00To60p00'
p580
sg8
(dp581
g10
(dp582
g12
F-1.566
sg13
F-2.0
ssg14
(dp583
g12
I60
sg13
I45
sssg16
S'; -2.000 < el_sc_eta < -1.566; 45.000 < el_pt < 60.000'
p584
sa(dp585
g4
S'tag_Ele_pt > 30 && abs(tag_sc_eta) < 2.17 && el_q*tag_Ele_q < 0 && el_pt > 10 && abs(el_sc_eta) < 2.5 && el_reliso03 < 0.08 && abs(el_dxy) < 0.01 && abs(el_dz) < 0.04 && el_3charge == 1 && el_passConversionVeto == 1 && el_dxysig < 4 && el_HNMVATight == 1 && el_sc_eta >= -1.566000 && el_sc_eta < -1.444200 && el_pt >= 45.000000 && el_pt < 60.000000'
p586
sg6
S'bin082_el_sc_eta_m1p57Tom1p44_el_pt_45p00To60p00'
p587
sg8
(dp588
g10
(dp589
g12
F-1.4442
sg13
F-1.566
ssg14
(dp590
g12
I60
sg13
I45
sssg16
S'; -1.566 < el_sc_eta < -1.444; 45.000 < el_pt < 60.000'
p591
sa(dp592
g4
S'tag_Ele_pt > 30 && abs(tag_sc_eta) < 2.17 && el_q*tag_Ele_q < 0 && el_pt > 10 && abs(el_sc_eta) < 2.5 && el_reliso03 < 0.08 && abs(el_dxy) < 0.01 && abs(el_dz) < 0.04 && el_3charge == 1 && el_passConversionVeto == 1 && el_dxysig < 4 && el_HNMVATight == 1 && el_sc_eta >= -1.444200 && el_sc_eta < -0.800000 && el_pt >= 45.000000 && el_pt < 60.000000'
p593
sg6
S'bin083_el_sc_eta_m1p44Tom0p80_el_pt_45p00To60p00'
p594
sg8
(dp595
g10
(dp596
g12
F-0.8
sg13
F-1.4442
ssg14
(dp597
g12
I60
sg13
I45
sssg16
S'; -1.444 < el_sc_eta < -0.800; 45.000 < el_pt < 60.000'
p598
sa(dp599
g4
S'tag_Ele_pt > 30 && abs(tag_sc_eta) < 2.17 && el_q*tag_Ele_q < 0 && el_pt > 10 && abs(el_sc_eta) < 2.5 && el_reliso03 < 0.08 && abs(el_dxy) < 0.01 && abs(el_dz) < 0.04 && el_3charge == 1 && el_passConversionVeto == 1 && el_dxysig < 4 && el_HNMVATight == 1 && el_sc_eta >= -0.800000 && el_sc_eta < 0.000000 && el_pt >= 45.000000 && el_pt < 60.000000'
p600
sg6
S'bin084_el_sc_eta_m0p80To0p00_el_pt_45p00To60p00'
p601
sg8
(dp602
g10
(dp603
g12
F0.0
sg13
F-0.8
ssg14
(dp604
g12
I60
sg13
I45
sssg16
S'; -0.800 < el_sc_eta < 0.000; 45.000 < el_pt < 60.000'
p605
sa(dp606
g4
S'tag_Ele_pt > 30 && abs(tag_sc_eta) < 2.17 && el_q*tag_Ele_q < 0 && el_pt > 10 && abs(el_sc_eta) < 2.5 && el_reliso03 < 0.08 && abs(el_dxy) < 0.01 && abs(el_dz) < 0.04 && el_3charge == 1 && el_passConversionVeto == 1 && el_dxysig < 4 && el_HNMVATight == 1 && el_sc_eta >= 0.000000 && el_sc_eta < 0.800000 && el_pt >= 45.000000 && el_pt < 60.000000'
p607
sg6
S'bin085_el_sc_eta_0p00To0p80_el_pt_45p00To60p00'
p608
sg8
(dp609
g10
(dp610
g12
F0.8
sg13
F0.0
ssg14
(dp611
g12
I60
sg13
I45
sssg16
S'; 0.000 < el_sc_eta < 0.800; 45.000 < el_pt < 60.000'
p612
sa(dp613
g4
S'tag_Ele_pt > 30 && abs(tag_sc_eta) < 2.17 && el_q*tag_Ele_q < 0 && el_pt > 10 && abs(el_sc_eta) < 2.5 && el_reliso03 < 0.08 && abs(el_dxy) < 0.01 && abs(el_dz) < 0.04 && el_3charge == 1 && el_passConversionVeto == 1 && el_dxysig < 4 && el_HNMVATight == 1 && el_sc_eta >= 0.800000 && el_sc_eta < 1.444200 && el_pt >= 45.000000 && el_pt < 60.000000'
p614
sg6
S'bin086_el_sc_eta_0p80To1p44_el_pt_45p00To60p00'
p615
sg8
(dp616
g10
(dp617
g12
F1.4442
sg13
F0.8
ssg14
(dp618
g12
I60
sg13
I45
sssg16
S'; 0.800 < el_sc_eta < 1.444; 45.000 < el_pt < 60.000'
p619
sa(dp620
g4
S'tag_Ele_pt > 30 && abs(tag_sc_eta) < 2.17 && el_q*tag_Ele_q < 0 && el_pt > 10 && abs(el_sc_eta) < 2.5 && el_reliso03 < 0.08 && abs(el_dxy) < 0.01 && abs(el_dz) < 0.04 && el_3charge == 1 && el_passConversionVeto == 1 && el_dxysig < 4 && el_HNMVATight == 1 && el_sc_eta >= 1.444200 && el_sc_eta < 1.566000 && el_pt >= 45.000000 && el_pt < 60.000000'
p621
sg6
S'bin087_el_sc_eta_1p44To1p57_el_pt_45p00To60p00'
p622
sg8
(dp623
g10
(dp624
g12
F1.566
sg13
F1.4442
ssg14
(dp625
g12
I60
sg13
I45
sssg16
S'; 1.444 < el_sc_eta < 1.566; 45.000 < el_pt < 60.000'
p626
sa(dp627
g4
S'tag_Ele_pt > 30 && abs(tag_sc_eta) < 2.17 && el_q*tag_Ele_q < 0 && el_pt > 10 && abs(el_sc_eta) < 2.5 && el_reliso03 < 0.08 && abs(el_dxy) < 0.01 && abs(el_dz) < 0.04 && el_3charge == 1 && el_passConversionVeto == 1 && el_dxysig < 4 && el_HNMVATight == 1 && el_sc_eta >= 1.566000 && el_sc_eta < 2.000000 && el_pt >= 45.000000 && el_pt < 60.000000'
p628
sg6
S'bin088_el_sc_eta_1p57To2p00_el_pt_45p00To60p00'
p629
sg8
(dp630
g10
(dp631
g12
F2.0
sg13
F1.566
ssg14
(dp632
g12
I60
sg13
I45
sssg16
S'; 1.566 < el_sc_eta < 2.000; 45.000 < el_pt < 60.000'
p633
sa(dp634
g4
S'tag_Ele_pt > 30 && abs(tag_sc_eta) < 2.17 && el_q*tag_Ele_q < 0 && el_pt > 10 && abs(el_sc_eta) < 2.5 && el_reliso03 < 0.08 && abs(el_dxy) < 0.01 && abs(el_dz) < 0.04 && el_3charge == 1 && el_passConversionVeto == 1 && el_dxysig < 4 && el_HNMVATight == 1 && el_sc_eta >= 2.000000 && el_sc_eta < 2.500000 && el_pt >= 45.000000 && el_pt < 60.000000'
p635
sg6
S'bin089_el_sc_eta_2p00To2p50_el_pt_45p00To60p00'
p636
sg8
(dp637
g10
(dp638
g12
F2.5
sg13
F2.0
ssg14
(dp639
g12
I60
sg13
I45
sssg16
S'; 2.000 < el_sc_eta < 2.500; 45.000 < el_pt < 60.000'
p640
sa(dp641
g4
S'tag_Ele_pt > 30 && abs(tag_sc_eta) < 2.17 && el_q*tag_Ele_q < 0 && el_pt > 10 && abs(el_sc_eta) < 2.5 && el_reliso03 < 0.08 && abs(el_dxy) < 0.01 && abs(el_dz) < 0.04 && el_3charge == 1 && el_passConversionVeto == 1 && el_dxysig < 4 && el_HNMVATight == 1 && el_sc_eta >= -2.500000 && el_sc_eta < -2.000000 && el_pt >= 60.000000 && el_pt < 80.000000'
p642
sg6
S'bin090_el_sc_eta_m2p50Tom2p00_el_pt_60p00To80p00'
p643
sg8
(dp644
g10
(dp645
g12
F-2.0
sg13
F-2.5
ssg14
(dp646
g12
I80
sg13
I60
sssg16
S'; -2.500 < el_sc_eta < -2.000; 60.000 < el_pt < 80.000'
p647
sa(dp648
g4
S'tag_Ele_pt > 30 && abs(tag_sc_eta) < 2.17 && el_q*tag_Ele_q < 0 && el_pt > 10 && abs(el_sc_eta) < 2.5 && el_reliso03 < 0.08 && abs(el_dxy) < 0.01 && abs(el_dz) < 0.04 && el_3charge == 1 && el_passConversionVeto == 1 && el_dxysig < 4 && el_HNMVATight == 1 && el_sc_eta >= -2.000000 && el_sc_eta < -1.566000 && el_pt >= 60.000000 && el_pt < 80.000000'
p649
sg6
S'bin091_el_sc_eta_m2p00Tom1p57_el_pt_60p00To80p00'
p650
sg8
(dp651
g10
(dp652
g12
F-1.566
sg13
F-2.0
ssg14
(dp653
g12
I80
sg13
I60
sssg16
S'; -2.000 < el_sc_eta < -1.566; 60.000 < el_pt < 80.000'
p654
sa(dp655
g4
S'tag_Ele_pt > 30 && abs(tag_sc_eta) < 2.17 && el_q*tag_Ele_q < 0 && el_pt > 10 && abs(el_sc_eta) < 2.5 && el_reliso03 < 0.08 && abs(el_dxy) < 0.01 && abs(el_dz) < 0.04 && el_3charge == 1 && el_passConversionVeto == 1 && el_dxysig < 4 && el_HNMVATight == 1 && el_sc_eta >= -1.566000 && el_sc_eta < -1.444200 && el_pt >= 60.000000 && el_pt < 80.000000'
p656
sg6
S'bin092_el_sc_eta_m1p57Tom1p44_el_pt_60p00To80p00'
p657
sg8
(dp658
g10
(dp659
g12
F-1.4442
sg13
F-1.566
ssg14
(dp660
g12
I80
sg13
I60
sssg16
S'; -1.566 < el_sc_eta < -1.444; 60.000 < el_pt < 80.000'
p661
sa(dp662
g4
S'tag_Ele_pt > 30 && abs(tag_sc_eta) < 2.17 && el_q*tag_Ele_q < 0 && el_pt > 10 && abs(el_sc_eta) < 2.5 && el_reliso03 < 0.08 && abs(el_dxy) < 0.01 && abs(el_dz) < 0.04 && el_3charge == 1 && el_passConversionVeto == 1 && el_dxysig < 4 && el_HNMVATight == 1 && el_sc_eta >= -1.444200 && el_sc_eta < -0.800000 && el_pt >= 60.000000 && el_pt < 80.000000'
p663
sg6
S'bin093_el_sc_eta_m1p44Tom0p80_el_pt_60p00To80p00'
p664
sg8
(dp665
g10
(dp666
g12
F-0.8
sg13
F-1.4442
ssg14
(dp667
g12
I80
sg13
I60
sssg16
S'; -1.444 < el_sc_eta < -0.800; 60.000 < el_pt < 80.000'
p668
sa(dp669
g4
S'tag_Ele_pt > 30 && abs(tag_sc_eta) < 2.17 && el_q*tag_Ele_q < 0 && el_pt > 10 && abs(el_sc_eta) < 2.5 && el_reliso03 < 0.08 && abs(el_dxy) < 0.01 && abs(el_dz) < 0.04 && el_3charge == 1 && el_passConversionVeto == 1 && el_dxysig < 4 && el_HNMVATight == 1 && el_sc_eta >= -0.800000 && el_sc_eta < 0.000000 && el_pt >= 60.000000 && el_pt < 80.000000'
p670
sg6
S'bin094_el_sc_eta_m0p80To0p00_el_pt_60p00To80p00'
p671
sg8
(dp672
g10
(dp673
g12
F0.0
sg13
F-0.8
ssg14
(dp674
g12
I80
sg13
I60
sssg16
S'; -0.800 < el_sc_eta < 0.000; 60.000 < el_pt < 80.000'
p675
sa(dp676
g4
S'tag_Ele_pt > 30 && abs(tag_sc_eta) < 2.17 && el_q*tag_Ele_q < 0 && el_pt > 10 && abs(el_sc_eta) < 2.5 && el_reliso03 < 0.08 && abs(el_dxy) < 0.01 && abs(el_dz) < 0.04 && el_3charge == 1 && el_passConversionVeto == 1 && el_dxysig < 4 && el_HNMVATight == 1 && el_sc_eta >= 0.000000 && el_sc_eta < 0.800000 && el_pt >= 60.000000 && el_pt < 80.000000'
p677
sg6
S'bin095_el_sc_eta_0p00To0p80_el_pt_60p00To80p00'
p678
sg8
(dp679
g10
(dp680
g12
F0.8
sg13
F0.0
ssg14
(dp681
g12
I80
sg13
I60
sssg16
S'; 0.000 < el_sc_eta < 0.800; 60.000 < el_pt < 80.000'
p682
sa(dp683
g4
S'tag_Ele_pt > 30 && abs(tag_sc_eta) < 2.17 && el_q*tag_Ele_q < 0 && el_pt > 10 && abs(el_sc_eta) < 2.5 && el_reliso03 < 0.08 && abs(el_dxy) < 0.01 && abs(el_dz) < 0.04 && el_3charge == 1 && el_passConversionVeto == 1 && el_dxysig < 4 && el_HNMVATight == 1 && el_sc_eta >= 0.800000 && el_sc_eta < 1.444200 && el_pt >= 60.000000 && el_pt < 80.000000'
p684
sg6
S'bin096_el_sc_eta_0p80To1p44_el_pt_60p00To80p00'
p685
sg8
(dp686
g10
(dp687
g12
F1.4442
sg13
F0.8
ssg14
(dp688
g12
I80
sg13
I60
sssg16
S'; 0.800 < el_sc_eta < 1.444; 60.000 < el_pt < 80.000'
p689
sa(dp690
g4
S'tag_Ele_pt > 30 && abs(tag_sc_eta) < 2.17 && el_q*tag_Ele_q < 0 && el_pt > 10 && abs(el_sc_eta) < 2.5 && el_reliso03 < 0.08 && abs(el_dxy) < 0.01 && abs(el_dz) < 0.04 && el_3charge == 1 && el_passConversionVeto == 1 && el_dxysig < 4 && el_HNMVATight == 1 && el_sc_eta >= 1.444200 && el_sc_eta < 1.566000 && el_pt >= 60.000000 && el_pt < 80.000000'
p691
sg6
S'bin097_el_sc_eta_1p44To1p57_el_pt_60p00To80p00'
p692
sg8
(dp693
g10
(dp694
g12
F1.566
sg13
F1.4442
ssg14
(dp695
g12
I80
sg13
I60
sssg16
S'; 1.444 < el_sc_eta < 1.566; 60.000 < el_pt < 80.000'
p696
sa(dp697
g4
S'tag_Ele_pt > 30 && abs(tag_sc_eta) < 2.17 && el_q*tag_Ele_q < 0 && el_pt > 10 && abs(el_sc_eta) < 2.5 && el_reliso03 < 0.08 && abs(el_dxy) < 0.01 && abs(el_dz) < 0.04 && el_3charge == 1 && el_passConversionVeto == 1 && el_dxysig < 4 && el_HNMVATight == 1 && el_sc_eta >= 1.566000 && el_sc_eta < 2.000000 && el_pt >= 60.000000 && el_pt < 80.000000'
p698
sg6
S'bin098_el_sc_eta_1p57To2p00_el_pt_60p00To80p00'
p699
sg8
(dp700
g10
(dp701
g12
F2.0
sg13
F1.566
ssg14
(dp702
g12
I80
sg13
I60
sssg16
S'; 1.566 < el_sc_eta < 2.000; 60.000 < el_pt < 80.000'
p703
sa(dp704
g4
S'tag_Ele_pt > 30 && abs(tag_sc_eta) < 2.17 && el_q*tag_Ele_q < 0 && el_pt > 10 && abs(el_sc_eta) < 2.5 && el_reliso03 < 0.08 && abs(el_dxy) < 0.01 && abs(el_dz) < 0.04 && el_3charge == 1 && el_passConversionVeto == 1 && el_dxysig < 4 && el_HNMVATight == 1 && el_sc_eta >= 2.000000 && el_sc_eta < 2.500000 && el_pt >= 60.000000 && el_pt < 80.000000'
p705
sg6
S'bin099_el_sc_eta_2p00To2p50_el_pt_60p00To80p00'
p706
sg8
(dp707
g10
(dp708
g12
F2.5
sg13
F2.0
ssg14
(dp709
g12
I80
sg13
I60
sssg16
S'; 2.000 < el_sc_eta < 2.500; 60.000 < el_pt < 80.000'
p710
sa(dp711
g4
S'tag_Ele_pt > 30 && abs(tag_sc_eta) < 2.17 && el_q*tag_Ele_q < 0 && el_pt > 10 && abs(el_sc_eta) < 2.5 && el_reliso03 < 0.08 && abs(el_dxy) < 0.01 && abs(el_dz) < 0.04 && el_3charge == 1 && el_passConversionVeto == 1 && el_dxysig < 4 && el_HNMVATight == 1 && el_sc_eta >= -2.500000 && el_sc_eta < -2.000000 && el_pt >= 80.000000 && el_pt < 120.000000'
p712
sg6
S'bin100_el_sc_eta_m2p50Tom2p00_el_pt_80p00To120p00'
p713
sg8
(dp714
g10
(dp715
g12
F-2.0
sg13
F-2.5
ssg14
(dp716
g12
I120
sg13
I80
sssg16
S'; -2.500 < el_sc_eta < -2.000; 80.000 < el_pt < 120.000'
p717
sa(dp718
g4
S'tag_Ele_pt > 30 && abs(tag_sc_eta) < 2.17 && el_q*tag_Ele_q < 0 && el_pt > 10 && abs(el_sc_eta) < 2.5 && el_reliso03 < 0.08 && abs(el_dxy) < 0.01 && abs(el_dz) < 0.04 && el_3charge == 1 && el_passConversionVeto == 1 && el_dxysig < 4 && el_HNMVATight == 1 && el_sc_eta >= -2.000000 && el_sc_eta < -1.566000 && el_pt >= 80.000000 && el_pt < 120.000000'
p719
sg6
S'bin101_el_sc_eta_m2p00Tom1p57_el_pt_80p00To120p00'
p720
sg8
(dp721
g10
(dp722
g12
F-1.566
sg13
F-2.0
ssg14
(dp723
g12
I120
sg13
I80
sssg16
S'; -2.000 < el_sc_eta < -1.566; 80.000 < el_pt < 120.000'
p724
sa(dp725
g4
S'tag_Ele_pt > 30 && abs(tag_sc_eta) < 2.17 && el_q*tag_Ele_q < 0 && el_pt > 10 && abs(el_sc_eta) < 2.5 && el_reliso03 < 0.08 && abs(el_dxy) < 0.01 && abs(el_dz) < 0.04 && el_3charge == 1 && el_passConversionVeto == 1 && el_dxysig < 4 && el_HNMVATight == 1 && el_sc_eta >= -1.566000 && el_sc_eta < -1.444200 && el_pt >= 80.000000 && el_pt < 120.000000'
p726
sg6
S'bin102_el_sc_eta_m1p57Tom1p44_el_pt_80p00To120p00'
p727
sg8
(dp728
g10
(dp729
g12
F-1.4442
sg13
F-1.566
ssg14
(dp730
g12
I120
sg13
I80
sssg16
S'; -1.566 < el_sc_eta < -1.444; 80.000 < el_pt < 120.000'
p731
sa(dp732
g4
S'tag_Ele_pt > 30 && abs(tag_sc_eta) < 2.17 && el_q*tag_Ele_q < 0 && el_pt > 10 && abs(el_sc_eta) < 2.5 && el_reliso03 < 0.08 && abs(el_dxy) < 0.01 && abs(el_dz) < 0.04 && el_3charge == 1 && el_passConversionVeto == 1 && el_dxysig < 4 && el_HNMVATight == 1 && el_sc_eta >= -1.444200 && el_sc_eta < -0.800000 && el_pt >= 80.000000 && el_pt < 120.000000'
p733
sg6
S'bin103_el_sc_eta_m1p44Tom0p80_el_pt_80p00To120p00'
p734
sg8
(dp735
g10
(dp736
g12
F-0.8
sg13
F-1.4442
ssg14
(dp737
g12
I120
sg13
I80
sssg16
S'; -1.444 < el_sc_eta < -0.800; 80.000 < el_pt < 120.000'
p738
sa(dp739
g4
S'tag_Ele_pt > 30 && abs(tag_sc_eta) < 2.17 && el_q*tag_Ele_q < 0 && el_pt > 10 && abs(el_sc_eta) < 2.5 && el_reliso03 < 0.08 && abs(el_dxy) < 0.01 && abs(el_dz) < 0.04 && el_3charge == 1 && el_passConversionVeto == 1 && el_dxysig < 4 && el_HNMVATight == 1 && el_sc_eta >= -0.800000 && el_sc_eta < 0.000000 && el_pt >= 80.000000 && el_pt < 120.000000'
p740
sg6
S'bin104_el_sc_eta_m0p80To0p00_el_pt_80p00To120p00'
p741
sg8
(dp742
g10
(dp743
g12
F0.0
sg13
F-0.8
ssg14
(dp744
g12
I120
sg13
I80
sssg16
S'; -0.800 < el_sc_eta < 0.000; 80.000 < el_pt < 120.000'
p745
sa(dp746
g4
S'tag_Ele_pt > 30 && abs(tag_sc_eta) < 2.17 && el_q*tag_Ele_q < 0 && el_pt > 10 && abs(el_sc_eta) < 2.5 && el_reliso03 < 0.08 && abs(el_dxy) < 0.01 && abs(el_dz) < 0.04 && el_3charge == 1 && el_passConversionVeto == 1 && el_dxysig < 4 && el_HNMVATight == 1 && el_sc_eta >= 0.000000 && el_sc_eta < 0.800000 && el_pt >= 80.000000 && el_pt < 120.000000'
p747
sg6
S'bin105_el_sc_eta_0p00To0p80_el_pt_80p00To120p00'
p748
sg8
(dp749
g10
(dp750
g12
F0.8
sg13
F0.0
ssg14
(dp751
g12
I120
sg13
I80
sssg16
S'; 0.000 < el_sc_eta < 0.800; 80.000 < el_pt < 120.000'
p752
sa(dp753
g4
S'tag_Ele_pt > 30 && abs(tag_sc_eta) < 2.17 && el_q*tag_Ele_q < 0 && el_pt > 10 && abs(el_sc_eta) < 2.5 && el_reliso03 < 0.08 && abs(el_dxy) < 0.01 && abs(el_dz) < 0.04 && el_3charge == 1 && el_passConversionVeto == 1 && el_dxysig < 4 && el_HNMVATight == 1 && el_sc_eta >= 0.800000 && el_sc_eta < 1.444200 && el_pt >= 80.000000 && el_pt < 120.000000'
p754
sg6
S'bin106_el_sc_eta_0p80To1p44_el_pt_80p00To120p00'
p755
sg8
(dp756
g10
(dp757
g12
F1.4442
sg13
F0.8
ssg14
(dp758
g12
I120
sg13
I80
sssg16
S'; 0.800 < el_sc_eta < 1.444; 80.000 < el_pt < 120.000'
p759
sa(dp760
g4
S'tag_Ele_pt > 30 && abs(tag_sc_eta) < 2.17 && el_q*tag_Ele_q < 0 && el_pt > 10 && abs(el_sc_eta) < 2.5 && el_reliso03 < 0.08 && abs(el_dxy) < 0.01 && abs(el_dz) < 0.04 && el_3charge == 1 && el_passConversionVeto == 1 && el_dxysig < 4 && el_HNMVATight == 1 && el_sc_eta >= 1.444200 && el_sc_eta < 1.566000 && el_pt >= 80.000000 && el_pt < 120.000000'
p761
sg6
S'bin107_el_sc_eta_1p44To1p57_el_pt_80p00To120p00'
p762
sg8
(dp763
g10
(dp764
g12
F1.566
sg13
F1.4442
ssg14
(dp765
g12
I120
sg13
I80
sssg16
S'; 1.444 < el_sc_eta < 1.566; 80.000 < el_pt < 120.000'
p766
sa(dp767
g4
S'tag_Ele_pt > 30 && abs(tag_sc_eta) < 2.17 && el_q*tag_Ele_q < 0 && el_pt > 10 && abs(el_sc_eta) < 2.5 && el_reliso03 < 0.08 && abs(el_dxy) < 0.01 && abs(el_dz) < 0.04 && el_3charge == 1 && el_passConversionVeto == 1 && el_dxysig < 4 && el_HNMVATight == 1 && el_sc_eta >= 1.566000 && el_sc_eta < 2.000000 && el_pt >= 80.000000 && el_pt < 120.000000'
p768
sg6
S'bin108_el_sc_eta_1p57To2p00_el_pt_80p00To120p00'
p769
sg8
(dp770
g10
(dp771
g12
F2.0
sg13
F1.566
ssg14
(dp772
g12
I120
sg13
I80
sssg16
S'; 1.566 < el_sc_eta < 2.000; 80.000 < el_pt < 120.000'
p773
sa(dp774
g4
S'tag_Ele_pt > 30 && abs(tag_sc_eta) < 2.17 && el_q*tag_Ele_q < 0 && el_pt > 10 && abs(el_sc_eta) < 2.5 && el_reliso03 < 0.08 && abs(el_dxy) < 0.01 && abs(el_dz) < 0.04 && el_3charge == 1 && el_passConversionVeto == 1 && el_dxysig < 4 && el_HNMVATight == 1 && el_sc_eta >= 2.000000 && el_sc_eta < 2.500000 && el_pt >= 80.000000 && el_pt < 120.000000'
p775
sg6
S'bin109_el_sc_eta_2p00To2p50_el_pt_80p00To120p00'
p776
sg8
(dp777
g10
(dp778
g12
F2.5
sg13
F2.0
ssg14
(dp779
g12
I120
sg13
I80
sssg16
S'; 2.000 < el_sc_eta < 2.500; 80.000 < el_pt < 120.000'
p780
sa(dp781
g4
S'tag_Ele_pt > 30 && abs(tag_sc_eta) < 2.17 && el_q*tag_Ele_q < 0 && el_pt > 10 && abs(el_sc_eta) < 2.5 && el_reliso03 < 0.08 && abs(el_dxy) < 0.01 && abs(el_dz) < 0.04 && el_3charge == 1 && el_passConversionVeto == 1 && el_dxysig < 4 && el_HNMVATight == 1 && el_sc_eta >= -2.500000 && el_sc_eta < -2.000000 && el_pt >= 120.000000 && el_pt < 200.000000'
p782
sg6
S'bin110_el_sc_eta_m2p50Tom2p00_el_pt_120p00To200p00'
p783
sg8
(dp784
g10
(dp785
g12
F-2.0
sg13
F-2.5
ssg14
(dp786
g12
I200
sg13
I120
sssg16
S'; -2.500 < el_sc_eta < -2.000; 120.000 < el_pt < 200.000'
p787
sa(dp788
g4
S'tag_Ele_pt > 30 && abs(tag_sc_eta) < 2.17 && el_q*tag_Ele_q < 0 && el_pt > 10 && abs(el_sc_eta) < 2.5 && el_reliso03 < 0.08 && abs(el_dxy) < 0.01 && abs(el_dz) < 0.04 && el_3charge == 1 && el_passConversionVeto == 1 && el_dxysig < 4 && el_HNMVATight == 1 && el_sc_eta >= -2.000000 && el_sc_eta < -1.566000 && el_pt >= 120.000000 && el_pt < 200.000000'
p789
sg6
S'bin111_el_sc_eta_m2p00Tom1p57_el_pt_120p00To200p00'
p790
sg8
(dp791
g10
(dp792
g12
F-1.566
sg13
F-2.0
ssg14
(dp793
g12
I200
sg13
I120
sssg16
S'; -2.000 < el_sc_eta < -1.566; 120.000 < el_pt < 200.000'
p794
sa(dp795
g4
S'tag_Ele_pt > 30 && abs(tag_sc_eta) < 2.17 && el_q*tag_Ele_q < 0 && el_pt > 10 && abs(el_sc_eta) < 2.5 && el_reliso03 < 0.08 && abs(el_dxy) < 0.01 && abs(el_dz) < 0.04 && el_3charge == 1 && el_passConversionVeto == 1 && el_dxysig < 4 && el_HNMVATight == 1 && el_sc_eta >= -1.566000 && el_sc_eta < -1.444200 && el_pt >= 120.000000 && el_pt < 200.000000'
p796
sg6
S'bin112_el_sc_eta_m1p57Tom1p44_el_pt_120p00To200p00'
p797
sg8
(dp798
g10
(dp799
g12
F-1.4442
sg13
F-1.566
ssg14
(dp800
g12
I200
sg13
I120
sssg16
S'; -1.566 < el_sc_eta < -1.444; 120.000 < el_pt < 200.000'
p801
sa(dp802
g4
S'tag_Ele_pt > 30 && abs(tag_sc_eta) < 2.17 && el_q*tag_Ele_q < 0 && el_pt > 10 && abs(el_sc_eta) < 2.5 && el_reliso03 < 0.08 && abs(el_dxy) < 0.01 && abs(el_dz) < 0.04 && el_3charge == 1 && el_passConversionVeto == 1 && el_dxysig < 4 && el_HNMVATight == 1 && el_sc_eta >= -1.444200 && el_sc_eta < -0.800000 && el_pt >= 120.000000 && el_pt < 200.000000'
p803
sg6
S'bin113_el_sc_eta_m1p44Tom0p80_el_pt_120p00To200p00'
p804
sg8
(dp805
g10
(dp806
g12
F-0.8
sg13
F-1.4442
ssg14
(dp807
g12
I200
sg13
I120
sssg16
S'; -1.444 < el_sc_eta < -0.800; 120.000 < el_pt < 200.000'
p808
sa(dp809
g4
S'tag_Ele_pt > 30 && abs(tag_sc_eta) < 2.17 && el_q*tag_Ele_q < 0 && el_pt > 10 && abs(el_sc_eta) < 2.5 && el_reliso03 < 0.08 && abs(el_dxy) < 0.01 && abs(el_dz) < 0.04 && el_3charge == 1 && el_passConversionVeto == 1 && el_dxysig < 4 && el_HNMVATight == 1 && el_sc_eta >= -0.800000 && el_sc_eta < 0.000000 && el_pt >= 120.000000 && el_pt < 200.000000'
p810
sg6
S'bin114_el_sc_eta_m0p80To0p00_el_pt_120p00To200p00'
p811
sg8
(dp812
g10
(dp813
g12
F0.0
sg13
F-0.8
ssg14
(dp814
g12
I200
sg13
I120
sssg16
S'; -0.800 < el_sc_eta < 0.000; 120.000 < el_pt < 200.000'
p815
sa(dp816
g4
S'tag_Ele_pt > 30 && abs(tag_sc_eta) < 2.17 && el_q*tag_Ele_q < 0 && el_pt > 10 && abs(el_sc_eta) < 2.5 && el_reliso03 < 0.08 && abs(el_dxy) < 0.01 && abs(el_dz) < 0.04 && el_3charge == 1 && el_passConversionVeto == 1 && el_dxysig < 4 && el_HNMVATight == 1 && el_sc_eta >= 0.000000 && el_sc_eta < 0.800000 && el_pt >= 120.000000 && el_pt < 200.000000'
p817
sg6
S'bin115_el_sc_eta_0p00To0p80_el_pt_120p00To200p00'
p818
sg8
(dp819
g10
(dp820
g12
F0.8
sg13
F0.0
ssg14
(dp821
g12
I200
sg13
I120
sssg16
S'; 0.000 < el_sc_eta < 0.800; 120.000 < el_pt < 200.000'
p822
sa(dp823
g4
S'tag_Ele_pt > 30 && abs(tag_sc_eta) < 2.17 && el_q*tag_Ele_q < 0 && el_pt > 10 && abs(el_sc_eta) < 2.5 && el_reliso03 < 0.08 && abs(el_dxy) < 0.01 && abs(el_dz) < 0.04 && el_3charge == 1 && el_passConversionVeto == 1 && el_dxysig < 4 && el_HNMVATight == 1 && el_sc_eta >= 0.800000 && el_sc_eta < 1.444200 && el_pt >= 120.000000 && el_pt < 200.000000'
p824
sg6
S'bin116_el_sc_eta_0p80To1p44_el_pt_120p00To200p00'
p825
sg8
(dp826
g10
(dp827
g12
F1.4442
sg13
F0.8
ssg14
(dp828
g12
I200
sg13
I120
sssg16
S'; 0.800 < el_sc_eta < 1.444; 120.000 < el_pt < 200.000'
p829
sa(dp830
g4
S'tag_Ele_pt > 30 && abs(tag_sc_eta) < 2.17 && el_q*tag_Ele_q < 0 && el_pt > 10 && abs(el_sc_eta) < 2.5 && el_reliso03 < 0.08 && abs(el_dxy) < 0.01 && abs(el_dz) < 0.04 && el_3charge == 1 && el_passConversionVeto == 1 && el_dxysig < 4 && el_HNMVATight == 1 && el_sc_eta >= 1.444200 && el_sc_eta < 1.566000 && el_pt >= 120.000000 && el_pt < 200.000000'
p831
sg6
S'bin117_el_sc_eta_1p44To1p57_el_pt_120p00To200p00'
p832
sg8
(dp833
g10
(dp834
g12
F1.566
sg13
F1.4442
ssg14
(dp835
g12
I200
sg13
I120
sssg16
S'; 1.444 < el_sc_eta < 1.566; 120.000 < el_pt < 200.000'
p836
sa(dp837
g4
S'tag_Ele_pt > 30 && abs(tag_sc_eta) < 2.17 && el_q*tag_Ele_q < 0 && el_pt > 10 && abs(el_sc_eta) < 2.5 && el_reliso03 < 0.08 && abs(el_dxy) < 0.01 && abs(el_dz) < 0.04 && el_3charge == 1 && el_passConversionVeto == 1 && el_dxysig < 4 && el_HNMVATight == 1 && el_sc_eta >= 1.566000 && el_sc_eta < 2.000000 && el_pt >= 120.000000 && el_pt < 200.000000'
p838
sg6
S'bin118_el_sc_eta_1p57To2p00_el_pt_120p00To200p00'
p839
sg8
(dp840
g10
(dp841
g12
F2.0
sg13
F1.566
ssg14
(dp842
g12
I200
sg13
I120
sssg16
S'; 1.566 < el_sc_eta < 2.000; 120.000 < el_pt < 200.000'
p843
sa(dp844
g4
S'tag_Ele_pt > 30 && abs(tag_sc_eta) < 2.17 && el_q*tag_Ele_q < 0 && el_pt > 10 && abs(el_sc_eta) < 2.5 && el_reliso03 < 0.08 && abs(el_dxy) < 0.01 && abs(el_dz) < 0.04 && el_3charge == 1 && el_passConversionVeto == 1 && el_dxysig < 4 && el_HNMVATight == 1 && el_sc_eta >= 2.000000 && el_sc_eta < 2.500000 && el_pt >= 120.000000 && el_pt < 200.000000'
p845
sg6
S'bin119_el_sc_eta_2p00To2p50_el_pt_120p00To200p00'
p846
sg8
(dp847
g10
(dp848
g12
F2.5
sg13
F2.0
ssg14
(dp849
g12
I200
sg13
I120
sssg16
S'; 2.000 < el_sc_eta < 2.500; 120.000 < el_pt < 200.000'
p850
sa(dp851
g4
S'tag_Ele_pt > 30 && abs(tag_sc_eta) < 2.17 && el_q*tag_Ele_q < 0 && el_pt > 10 && abs(el_sc_eta) < 2.5 && el_reliso03 < 0.08 && abs(el_dxy) < 0.01 && abs(el_dz) < 0.04 && el_3charge == 1 && el_passConversionVeto == 1 && el_dxysig < 4 && el_HNMVATight == 1 && el_sc_eta >= -2.500000 && el_sc_eta < -2.000000 && el_pt >= 200.000000 && el_pt < 500.000000'
p852
sg6
S'bin120_el_sc_eta_m2p50Tom2p00_el_pt_200p00To500p00'
p853
sg8
(dp854
g10
(dp855
g12
F-2.0
sg13
F-2.5
ssg14
(dp856
g12
I500
sg13
I200
sssg16
S'; -2.500 < el_sc_eta < -2.000; 200.000 < el_pt < 500.000'
p857
sa(dp858
g4
S'tag_Ele_pt > 30 && abs(tag_sc_eta) < 2.17 && el_q*tag_Ele_q < 0 && el_pt > 10 && abs(el_sc_eta) < 2.5 && el_reliso03 < 0.08 && abs(el_dxy) < 0.01 && abs(el_dz) < 0.04 && el_3charge == 1 && el_passConversionVeto == 1 && el_dxysig < 4 && el_HNMVATight == 1 && el_sc_eta >= -2.000000 && el_sc_eta < -1.566000 && el_pt >= 200.000000 && el_pt < 500.000000'
p859
sg6
S'bin121_el_sc_eta_m2p00Tom1p57_el_pt_200p00To500p00'
p860
sg8
(dp861
g10
(dp862
g12
F-1.566
sg13
F-2.0
ssg14
(dp863
g12
I500
sg13
I200
sssg16
S'; -2.000 < el_sc_eta < -1.566; 200.000 < el_pt < 500.000'
p864
sa(dp865
g4
S'tag_Ele_pt > 30 && abs(tag_sc_eta) < 2.17 && el_q*tag_Ele_q < 0 && el_pt > 10 && abs(el_sc_eta) < 2.5 && el_reliso03 < 0.08 && abs(el_dxy) < 0.01 && abs(el_dz) < 0.04 && el_3charge == 1 && el_passConversionVeto == 1 && el_dxysig < 4 && el_HNMVATight == 1 && el_sc_eta >= -1.566000 && el_sc_eta < -1.444200 && el_pt >= 200.000000 && el_pt < 500.000000'
p866
sg6
S'bin122_el_sc_eta_m1p57Tom1p44_el_pt_200p00To500p00'
p867
sg8
(dp868
g10
(dp869
g12
F-1.4442
sg13
F-1.566
ssg14
(dp870
g12
I500
sg13
I200
sssg16
S'; -1.566 < el_sc_eta < -1.444; 200.000 < el_pt < 500.000'
p871
sa(dp872
g4
S'tag_Ele_pt > 30 && abs(tag_sc_eta) < 2.17 && el_q*tag_Ele_q < 0 && el_pt > 10 && abs(el_sc_eta) < 2.5 && el_reliso03 < 0.08 && abs(el_dxy) < 0.01 && abs(el_dz) < 0.04 && el_3charge == 1 && el_passConversionVeto == 1 && el_dxysig < 4 && el_HNMVATight == 1 && el_sc_eta >= -1.444200 && el_sc_eta < -0.800000 && el_pt >= 200.000000 && el_pt < 500.000000'
p873
sg6
S'bin123_el_sc_eta_m1p44Tom0p80_el_pt_200p00To500p00'
p874
sg8
(dp875
g10
(dp876
g12
F-0.8
sg13
F-1.4442
ssg14
(dp877
g12
I500
sg13
I200
sssg16
S'; -1.444 < el_sc_eta < -0.800; 200.000 < el_pt < 500.000'
p878
sa(dp879
g4
S'tag_Ele_pt > 30 && abs(tag_sc_eta) < 2.17 && el_q*tag_Ele_q < 0 && el_pt > 10 && abs(el_sc_eta) < 2.5 && el_reliso03 < 0.08 && abs(el_dxy) < 0.01 && abs(el_dz) < 0.04 && el_3charge == 1 && el_passConversionVeto == 1 && el_dxysig < 4 && el_HNMVATight == 1 && el_sc_eta >= -0.800000 && el_sc_eta < 0.000000 && el_pt >= 200.000000 && el_pt < 500.000000'
p880
sg6
S'bin124_el_sc_eta_m0p80To0p00_el_pt_200p00To500p00'
p881
sg8
(dp882
g10
(dp883
g12
F0.0
sg13
F-0.8
ssg14
(dp884
g12
I500
sg13
I200
sssg16
S'; -0.800 < el_sc_eta < 0.000; 200.000 < el_pt < 500.000'
p885
sa(dp886
g4
S'tag_Ele_pt > 30 && abs(tag_sc_eta) < 2.17 && el_q*tag_Ele_q < 0 && el_pt > 10 && abs(el_sc_eta) < 2.5 && el_reliso03 < 0.08 && abs(el_dxy) < 0.01 && abs(el_dz) < 0.04 && el_3charge == 1 && el_passConversionVeto == 1 && el_dxysig < 4 && el_HNMVATight == 1 && el_sc_eta >= 0.000000 && el_sc_eta < 0.800000 && el_pt >= 200.000000 && el_pt < 500.000000'
p887
sg6
S'bin125_el_sc_eta_0p00To0p80_el_pt_200p00To500p00'
p888
sg8
(dp889
g10
(dp890
g12
F0.8
sg13
F0.0
ssg14
(dp891
g12
I500
sg13
I200
sssg16
S'; 0.000 < el_sc_eta < 0.800; 200.000 < el_pt < 500.000'
p892
sa(dp893
g4
S'tag_Ele_pt > 30 && abs(tag_sc_eta) < 2.17 && el_q*tag_Ele_q < 0 && el_pt > 10 && abs(el_sc_eta) < 2.5 && el_reliso03 < 0.08 && abs(el_dxy) < 0.01 && abs(el_dz) < 0.04 && el_3charge == 1 && el_passConversionVeto == 1 && el_dxysig < 4 && el_HNMVATight == 1 && el_sc_eta >= 0.800000 && el_sc_eta < 1.444200 && el_pt >= 200.000000 && el_pt < 500.000000'
p894
sg6
S'bin126_el_sc_eta_0p80To1p44_el_pt_200p00To500p00'
p895
sg8
(dp896
g10
(dp897
g12
F1.4442
sg13
F0.8
ssg14
(dp898
g12
I500
sg13
I200
sssg16
S'; 0.800 < el_sc_eta < 1.444; 200.000 < el_pt < 500.000'
p899
sa(dp900
g4
S'tag_Ele_pt > 30 && abs(tag_sc_eta) < 2.17 && el_q*tag_Ele_q < 0 && el_pt > 10 && abs(el_sc_eta) < 2.5 && el_reliso03 < 0.08 && abs(el_dxy) < 0.01 && abs(el_dz) < 0.04 && el_3charge == 1 && el_passConversionVeto == 1 && el_dxysig < 4 && el_HNMVATight == 1 && el_sc_eta >= 1.444200 && el_sc_eta < 1.566000 && el_pt >= 200.000000 && el_pt < 500.000000'
p901
sg6
S'bin127_el_sc_eta_1p44To1p57_el_pt_200p00To500p00'
p902
sg8
(dp903
g10
(dp904
g12
F1.566
sg13
F1.4442
ssg14
(dp905
g12
I500
sg13
I200
sssg16
S'; 1.444 < el_sc_eta < 1.566; 200.000 < el_pt < 500.000'
p906
sa(dp907
g4
S'tag_Ele_pt > 30 && abs(tag_sc_eta) < 2.17 && el_q*tag_Ele_q < 0 && el_pt > 10 && abs(el_sc_eta) < 2.5 && el_reliso03 < 0.08 && abs(el_dxy) < 0.01 && abs(el_dz) < 0.04 && el_3charge == 1 && el_passConversionVeto == 1 && el_dxysig < 4 && el_HNMVATight == 1 && el_sc_eta >= 1.566000 && el_sc_eta < 2.000000 && el_pt >= 200.000000 && el_pt < 500.000000'
p908
sg6
S'bin128_el_sc_eta_1p57To2p00_el_pt_200p00To500p00'
p909
sg8
(dp910
g10
(dp911
g12
F2.0
sg13
F1.566
ssg14
(dp912
g12
I500
sg13
I200
sssg16
S'; 1.566 < el_sc_eta < 2.000; 200.000 < el_pt < 500.000'
p913
sa(dp914
g4
S'tag_Ele_pt > 30 && abs(tag_sc_eta) < 2.17 && el_q*tag_Ele_q < 0 && el_pt > 10 && abs(el_sc_eta) < 2.5 && el_reliso03 < 0.08 && abs(el_dxy) < 0.01 && abs(el_dz) < 0.04 && el_3charge == 1 && el_passConversionVeto == 1 && el_dxysig < 4 && el_HNMVATight == 1 && el_sc_eta >= 2.000000 && el_sc_eta < 2.500000 && el_pt >= 200.000000 && el_pt < 500.000000'
p915
sg6
S'bin129_el_sc_eta_2p00To2p50_el_pt_200p00To500p00'
p916
sg8
(dp917
g10
(dp918
g12
F2.5
sg13
F2.0
ssg14
(dp919
g12
I500
sg13
I200
sssg16
S'; 2.000 < el_sc_eta < 2.500; 200.000 < el_pt < 500.000'
p920
sasg8
(lp921
g10
ag14
as.